

Microchip MPLAB XC8 Assembler V2.35 build 20211206165544 
                                                                                               Fri Sep 30 00:00:24 2022

Microchip MPLAB XC8 C Compiler v2.35 (Free license) build 20211206165544 Og1 
     1                           	processor	16F887
     2                           	pagewidth 120
     3                           	opt	flic
     4                           	psect	idataBANK1,global,class=CODE,delta=2,noexec
     5                           	psect	cinit,global,class=CODE,merge=1,delta=2
     6                           	psect	bssBANK1,global,class=BANK1,space=1,delta=1,noexec
     7                           	psect	dataBANK1,global,class=BANK1,space=1,delta=1,noexec
     8                           	psect	cstackBANK1,global,class=BANK1,space=1,delta=1,noexec
     9                           	psect	cstackCOMMON,global,class=COMMON,space=1,delta=1,noexec
    10                           	psect	cstackBANK0,global,class=BANK0,space=1,delta=1,noexec
    11                           	psect	maintext,global,class=CODE,split=1,delta=2
    12                           	psect	text1,local,class=CODE,merge=1,delta=2
    13                           	psect	intentry,global,class=CODE,delta=2
    14                           	psect	text2,local,class=CODE,merge=1,delta=2
    15                           	psect	text3,local,class=CODE,merge=1,delta=2
    16                           	psect	text4,local,class=CODE,merge=1,delta=2
    17                           	psect	text5,local,class=CODE,merge=1,delta=2
    18                           	psect	text6,local,class=CODE,merge=1,delta=2,group=1
    19                           	psect	text7,local,class=CODE,merge=1,delta=2,group=1
    20                           	psect	text8,local,class=CODE,merge=1,delta=2,group=1
    21                           	psect	text9,local,class=CODE,merge=1,delta=2,group=1
    22                           	psect	text10,local,class=CODE,merge=1,delta=2,group=1
    23                           	psect	text11,local,class=CODE,merge=1,delta=2,group=1
    24                           	psect	idloc,global,abs,ovrld,class=IDLOC,space=5,delta=2,noexec
    25                           	psect	config,global,abs,ovrld,class=CONFIG,space=4,delta=2,noexec
    26                           	dabs	1,0x7E,2
    27  0000                     
    28                           ; Version 2.40
    29                           ; Generated 17/11/2021 GMT
    30                           ; 
    31                           ; Copyright © 2021, Microchip Technology Inc. and its subsidiaries ("Microchip")
    32                           ; All rights reserved.
    33                           ; 
    34                           ; This software is developed by Microchip Technology Inc. and its subsidiaries ("Microch
      +                          ip").
    35                           ; 
    36                           ; Redistribution and use in source and binary forms, with or without modification, are
    37                           ; permitted provided that the following conditions are met:
    38                           ; 
    39                           ;     1. Redistributions of source code must retain the above copyright notice, this lis
      +                          t of
    40                           ;        conditions and the following disclaimer.
    41                           ; 
    42                           ;     2. Redistributions in binary form must reproduce the above copyright notice, this 
      +                          list
    43                           ;        of conditions and the following disclaimer in the documentation and/or other
    44                           ;        materials provided with the distribution. Publication is not required when
    45                           ;        this file is used in an embedded application.
    46                           ; 
    47                           ;     3. Microchip's name may not be used to endorse or promote products derived from th
      +                          is
    48                           ;        software without specific prior written permission.
    49                           ; 
    50                           ; THIS SOFTWARE IS PROVIDED BY MICROCHIP "AS IS" AND ANY EXPRESS OR IMPLIED WARRANTIES,
    51                           ; INCLUDING, BUT NOT LIMITED TO, THE IMPLIED WARRANTIES OF MERCHANTABILITY AND FITNESS F
      +                          OR
    52                           ; PURPOSE ARE DISCLAIMED.  IN NO EVENT SHALL MICROCHIP BE LIABLE FOR ANY DIRECT, INDIREC
      +                          T,
    53                           ; INCIDENTAL, SPECIAL, EXEMPLARY, OR CONSEQUENTIAL DAMAGES (INCLUDING BUT NOT LIMITED TO
    54                           ; PROCUREMENT OF SUBSTITUTE GOODS OR SERVICES; LOSS OF USE, DATA OR PROFITS; OR BUSINESS
    55                           ; INTERRUPTION) HOWSOEVER CAUSED AND ON ANY THEORY OF LIABILITY, WHETHER IN CONTRACT, ST
      +                          RICT
    56                           ; LIABILITY, OR TORT (INCLUDING NEGLIGENCE OR OTHERWISE) ARISING IN ANY WAY OUT OF THE U
      +                          SE OF
    57                           ; THIS SOFTWARE, EVEN IF ADVISED OF THE POSSIBILITY OF SUCH DAMAGE.
    58                           ; 
    59                           ; 
    60                           ; Code-generator required, PIC16F887 Definitions
    61                           ; 
    62                           ; SFR Addresses
    63  0000                     	;# 
    64  0001                     	;# 
    65  0002                     	;# 
    66  0003                     	;# 
    67  0004                     	;# 
    68  0005                     	;# 
    69  0006                     	;# 
    70  0007                     	;# 
    71  0008                     	;# 
    72  0009                     	;# 
    73  000A                     	;# 
    74  000B                     	;# 
    75  000C                     	;# 
    76  000D                     	;# 
    77  000E                     	;# 
    78  000E                     	;# 
    79  000F                     	;# 
    80  0010                     	;# 
    81  0011                     	;# 
    82  0012                     	;# 
    83  0013                     	;# 
    84  0014                     	;# 
    85  0015                     	;# 
    86  0015                     	;# 
    87  0016                     	;# 
    88  0017                     	;# 
    89  0018                     	;# 
    90  0019                     	;# 
    91  001A                     	;# 
    92  001B                     	;# 
    93  001B                     	;# 
    94  001C                     	;# 
    95  001D                     	;# 
    96  001E                     	;# 
    97  001F                     	;# 
    98  0081                     	;# 
    99  0085                     	;# 
   100  0086                     	;# 
   101  0087                     	;# 
   102  0088                     	;# 
   103  0089                     	;# 
   104  008C                     	;# 
   105  008D                     	;# 
   106  008E                     	;# 
   107  008F                     	;# 
   108  0090                     	;# 
   109  0091                     	;# 
   110  0092                     	;# 
   111  0093                     	;# 
   112  0093                     	;# 
   113  0093                     	;# 
   114  0094                     	;# 
   115  0095                     	;# 
   116  0096                     	;# 
   117  0097                     	;# 
   118  0098                     	;# 
   119  0099                     	;# 
   120  009A                     	;# 
   121  009B                     	;# 
   122  009C                     	;# 
   123  009D                     	;# 
   124  009E                     	;# 
   125  009F                     	;# 
   126  0105                     	;# 
   127  0107                     	;# 
   128  0108                     	;# 
   129  0109                     	;# 
   130  010C                     	;# 
   131  010C                     	;# 
   132  010D                     	;# 
   133  010E                     	;# 
   134  010F                     	;# 
   135  0185                     	;# 
   136  0187                     	;# 
   137  0188                     	;# 
   138  0189                     	;# 
   139  018C                     	;# 
   140  018D                     	;# 
   141  0000                     	;# 
   142  0001                     	;# 
   143  0002                     	;# 
   144  0003                     	;# 
   145  0004                     	;# 
   146  0005                     	;# 
   147  0006                     	;# 
   148  0007                     	;# 
   149  0008                     	;# 
   150  0009                     	;# 
   151  000A                     	;# 
   152  000B                     	;# 
   153  000C                     	;# 
   154  000D                     	;# 
   155  000E                     	;# 
   156  000E                     	;# 
   157  000F                     	;# 
   158  0010                     	;# 
   159  0011                     	;# 
   160  0012                     	;# 
   161  0013                     	;# 
   162  0014                     	;# 
   163  0015                     	;# 
   164  0015                     	;# 
   165  0016                     	;# 
   166  0017                     	;# 
   167  0018                     	;# 
   168  0019                     	;# 
   169  001A                     	;# 
   170  001B                     	;# 
   171  001B                     	;# 
   172  001C                     	;# 
   173  001D                     	;# 
   174  001E                     	;# 
   175  001F                     	;# 
   176  0081                     	;# 
   177  0085                     	;# 
   178  0086                     	;# 
   179  0087                     	;# 
   180  0088                     	;# 
   181  0089                     	;# 
   182  008C                     	;# 
   183  008D                     	;# 
   184  008E                     	;# 
   185  008F                     	;# 
   186  0090                     	;# 
   187  0091                     	;# 
   188  0092                     	;# 
   189  0093                     	;# 
   190  0093                     	;# 
   191  0093                     	;# 
   192  0094                     	;# 
   193  0095                     	;# 
   194  0096                     	;# 
   195  0097                     	;# 
   196  0098                     	;# 
   197  0099                     	;# 
   198  009A                     	;# 
   199  009B                     	;# 
   200  009C                     	;# 
   201  009D                     	;# 
   202  009E                     	;# 
   203  009F                     	;# 
   204  0105                     	;# 
   205  0107                     	;# 
   206  0108                     	;# 
   207  0109                     	;# 
   208  010C                     	;# 
   209  010C                     	;# 
   210  010D                     	;# 
   211  010E                     	;# 
   212  010F                     	;# 
   213  0185                     	;# 
   214  0187                     	;# 
   215  0188                     	;# 
   216  0189                     	;# 
   217  018C                     	;# 
   218  018D                     	;# 
   219  0000                     	;# 
   220  0001                     	;# 
   221  0002                     	;# 
   222  0003                     	;# 
   223  0004                     	;# 
   224  0005                     	;# 
   225  0006                     	;# 
   226  0007                     	;# 
   227  0008                     	;# 
   228  0009                     	;# 
   229  000A                     	;# 
   230  000B                     	;# 
   231  000C                     	;# 
   232  000D                     	;# 
   233  000E                     	;# 
   234  000E                     	;# 
   235  000F                     	;# 
   236  0010                     	;# 
   237  0011                     	;# 
   238  0012                     	;# 
   239  0013                     	;# 
   240  0014                     	;# 
   241  0015                     	;# 
   242  0015                     	;# 
   243  0016                     	;# 
   244  0017                     	;# 
   245  0018                     	;# 
   246  0019                     	;# 
   247  001A                     	;# 
   248  001B                     	;# 
   249  001B                     	;# 
   250  001C                     	;# 
   251  001D                     	;# 
   252  001E                     	;# 
   253  001F                     	;# 
   254  0081                     	;# 
   255  0085                     	;# 
   256  0086                     	;# 
   257  0087                     	;# 
   258  0088                     	;# 
   259  0089                     	;# 
   260  008C                     	;# 
   261  008D                     	;# 
   262  008E                     	;# 
   263  008F                     	;# 
   264  0090                     	;# 
   265  0091                     	;# 
   266  0092                     	;# 
   267  0093                     	;# 
   268  0093                     	;# 
   269  0093                     	;# 
   270  0094                     	;# 
   271  0095                     	;# 
   272  0096                     	;# 
   273  0097                     	;# 
   274  0098                     	;# 
   275  0099                     	;# 
   276  009A                     	;# 
   277  009B                     	;# 
   278  009C                     	;# 
   279  009D                     	;# 
   280  009E                     	;# 
   281  009F                     	;# 
   282  0105                     	;# 
   283  0107                     	;# 
   284  0108                     	;# 
   285  0109                     	;# 
   286  010C                     	;# 
   287  010C                     	;# 
   288  010D                     	;# 
   289  010E                     	;# 
   290  010F                     	;# 
   291  0185                     	;# 
   292  0187                     	;# 
   293  0188                     	;# 
   294  0189                     	;# 
   295  018C                     	;# 
   296  018D                     	;# 
   297  0000                     	;# 
   298  0001                     	;# 
   299  0002                     	;# 
   300  0003                     	;# 
   301  0004                     	;# 
   302  0005                     	;# 
   303  0006                     	;# 
   304  0007                     	;# 
   305  0008                     	;# 
   306  0009                     	;# 
   307  000A                     	;# 
   308  000B                     	;# 
   309  000C                     	;# 
   310  000D                     	;# 
   311  000E                     	;# 
   312  000E                     	;# 
   313  000F                     	;# 
   314  0010                     	;# 
   315  0011                     	;# 
   316  0012                     	;# 
   317  0013                     	;# 
   318  0014                     	;# 
   319  0015                     	;# 
   320  0015                     	;# 
   321  0016                     	;# 
   322  0017                     	;# 
   323  0018                     	;# 
   324  0019                     	;# 
   325  001A                     	;# 
   326  001B                     	;# 
   327  001B                     	;# 
   328  001C                     	;# 
   329  001D                     	;# 
   330  001E                     	;# 
   331  001F                     	;# 
   332  0081                     	;# 
   333  0085                     	;# 
   334  0086                     	;# 
   335  0087                     	;# 
   336  0088                     	;# 
   337  0089                     	;# 
   338  008C                     	;# 
   339  008D                     	;# 
   340  008E                     	;# 
   341  008F                     	;# 
   342  0090                     	;# 
   343  0091                     	;# 
   344  0092                     	;# 
   345  0093                     	;# 
   346  0093                     	;# 
   347  0093                     	;# 
   348  0094                     	;# 
   349  0095                     	;# 
   350  0096                     	;# 
   351  0097                     	;# 
   352  0098                     	;# 
   353  0099                     	;# 
   354  009A                     	;# 
   355  009B                     	;# 
   356  009C                     	;# 
   357  009D                     	;# 
   358  009E                     	;# 
   359  009F                     	;# 
   360  0105                     	;# 
   361  0107                     	;# 
   362  0108                     	;# 
   363  0109                     	;# 
   364  010C                     	;# 
   365  010C                     	;# 
   366  010D                     	;# 
   367  010E                     	;# 
   368  010F                     	;# 
   369  0185                     	;# 
   370  0187                     	;# 
   371  0188                     	;# 
   372  0189                     	;# 
   373  018C                     	;# 
   374  018D                     	;# 
   375  0000                     	;# 
   376  0001                     	;# 
   377  0002                     	;# 
   378  0003                     	;# 
   379  0004                     	;# 
   380  0005                     	;# 
   381  0006                     	;# 
   382  0007                     	;# 
   383  0008                     	;# 
   384  0009                     	;# 
   385  000A                     	;# 
   386  000B                     	;# 
   387  000C                     	;# 
   388  000D                     	;# 
   389  000E                     	;# 
   390  000E                     	;# 
   391  000F                     	;# 
   392  0010                     	;# 
   393  0011                     	;# 
   394  0012                     	;# 
   395  0013                     	;# 
   396  0014                     	;# 
   397  0015                     	;# 
   398  0015                     	;# 
   399  0016                     	;# 
   400  0017                     	;# 
   401  0018                     	;# 
   402  0019                     	;# 
   403  001A                     	;# 
   404  001B                     	;# 
   405  001B                     	;# 
   406  001C                     	;# 
   407  001D                     	;# 
   408  001E                     	;# 
   409  001F                     	;# 
   410  0081                     	;# 
   411  0085                     	;# 
   412  0086                     	;# 
   413  0087                     	;# 
   414  0088                     	;# 
   415  0089                     	;# 
   416  008C                     	;# 
   417  008D                     	;# 
   418  008E                     	;# 
   419  008F                     	;# 
   420  0090                     	;# 
   421  0091                     	;# 
   422  0092                     	;# 
   423  0093                     	;# 
   424  0093                     	;# 
   425  0093                     	;# 
   426  0094                     	;# 
   427  0095                     	;# 
   428  0096                     	;# 
   429  0097                     	;# 
   430  0098                     	;# 
   431  0099                     	;# 
   432  009A                     	;# 
   433  009B                     	;# 
   434  009C                     	;# 
   435  009D                     	;# 
   436  009E                     	;# 
   437  009F                     	;# 
   438  0105                     	;# 
   439  0107                     	;# 
   440  0108                     	;# 
   441  0109                     	;# 
   442  010C                     	;# 
   443  010C                     	;# 
   444  010D                     	;# 
   445  010E                     	;# 
   446  010F                     	;# 
   447  0185                     	;# 
   448  0187                     	;# 
   449  0188                     	;# 
   450  0189                     	;# 
   451  018C                     	;# 
   452  018D                     	;# 
   453                           
   454                           	psect	idataBANK1
   455  07FC                     __pidataBANK1:
   456                           
   457                           ;initializer for _mensaje
   458  07FC  3401               	retlw	1
   459  0013                     _SSPBUF	set	19
   460  0014                     _SSPCON	set	20
   461  0017                     _CCP1CON	set	23
   462  000B                     _INTCONbits	set	11
   463  0018                     _RCSTAbits	set	24
   464  0019                     _TXREG	set	25
   465  0017                     _CCP1CONbits	set	23
   466  0015                     _CCPR1L	set	21
   467  001E                     _ADRESH	set	30
   468  001F                     _ADCON0bits	set	31
   469  001A                     _RCREG	set	26
   470  000C                     _PIR1bits	set	12
   471  0008                     _PORTDbits	set	8
   472  0043                     _RD3	set	67
   473  0047                     _RD7	set	71
   474  0046                     _RD6	set	70
   475  0045                     _RD5	set	69
   476  0044                     _RD4	set	68
   477  0094                     _SSPSTATbits	set	148
   478  0094                     _SSPSTAT	set	148
   479  0092                     _PR2	set	146
   480  0087                     _TRISCbits	set	135
   481  009F                     _ADCON1bits	set	159
   482  008C                     _PIE1bits	set	140
   483  009A                     _SPBRGH	set	154
   484  0099                     _SPBRG	set	153
   485  0098                     _TXSTAbits	set	152
   486  008F                     _OSCCONbits	set	143
   487  043B                     _TRISC3	set	1083
   488  043D                     _TRISC5	set	1085
   489  0187                     _BAUDCTLbits	set	391
   490                           
   491                           	psect	cinit
   492  0013                     start_initialization:	
   493                           ; #config settings
   494                           
   495  0013                     __initialization:
   496                           
   497                           ; Initialize objects allocated to BANK1
   498  0013  1683               	bsf	3,5	;RP0=1, select bank1
   499  0014  1303               	bcf	3,6	;RP1=0, select bank1
   500  0015  120A  118A  27FC  120A  118A  	fcall	__pidataBANK1	;fetch initializer
   501  001A  00B8               	movwf	__pdataBANK1& (0+127)
   502                           
   503                           ; Clear objects allocated to BANK1
   504  001B  01B1               	clrf	__pbssBANK1& (0+127)
   505  001C  01B2               	clrf	(__pbssBANK1+1)& (0+127)
   506  001D  01B3               	clrf	(__pbssBANK1+2)& (0+127)
   507  001E  01B4               	clrf	(__pbssBANK1+3)& (0+127)
   508  001F  01B5               	clrf	(__pbssBANK1+4)& (0+127)
   509  0020  01B6               	clrf	(__pbssBANK1+5)& (0+127)
   510  0021  01B7               	clrf	(__pbssBANK1+6)& (0+127)
   511  0022                     end_of_initialization:	
   512                           ;End of C runtime variable initialization code
   513                           
   514  0022                     __end_of__initialization:
   515  0022  0183               	clrf	3
   516  0023  120A  158A  2D12   	ljmp	_main	;jump to C main() function
   517                           
   518                           	psect	bssBANK1
   519  00B1                     __pbssBANK1:
   520  00B1                     _CCPR:
   521  00B1                     	ds	2
   522  00B3                     _boton:
   523  00B3                     	ds	1
   524  00B4                     _pot:
   525  00B4                     	ds	1
   526  00B5                     _presion:
   527  00B5                     	ds	1
   528  00B6                     _reloj:
   529  00B6                     	ds	1
   530  00B7                     _ENVIO:
   531  00B7                     	ds	1
   532                           
   533                           	psect	dataBANK1
   534  00B8                     __pdataBANK1:
   535  00B8                     _mensaje:
   536  00B8                     	ds	1
   537                           
   538                           	psect	cstackBANK1
   539  00A0                     __pcstackBANK1:
   540  00A0                     ??___fltol:
   541                           
   542                           ; 1 bytes @ 0x0
   543  00A0                     	ds	5
   544  00A5                     ?_map:
   545  00A5                     map@x0:	
   546                           ; 2 bytes @ 0x5
   547                           
   548                           
   549                           ; 1 bytes @ 0x5
   550  00A5                     	ds	1
   551  00A6                     map@x1:
   552                           
   553                           ; 1 bytes @ 0x6
   554  00A6                     	ds	1
   555  00A7                     map@y0:
   556                           
   557                           ; 2 bytes @ 0x7
   558  00A7                     	ds	2
   559  00A9                     map@y1:
   560                           
   561                           ; 2 bytes @ 0x9
   562  00A9                     	ds	2
   563  00AB                     ??_isr:
   564                           
   565                           ; 1 bytes @ 0xB
   566  00AB                     	ds	5
   567  00B0                     ??_main:
   568                           
   569                           ; 1 bytes @ 0x10
   570  00B0                     	ds	1
   571                           
   572                           	psect	cstackCOMMON
   573  0070                     __pcstackCOMMON:
   574  0070                     ?_spiRead:
   575  0070                     ??_spiRead:	
   576                           ; 1 bytes @ 0x0
   577                           
   578  0070                     ?_spiWrite:	
   579                           ; 1 bytes @ 0x0
   580                           
   581  0070                     ??_spiWrite:	
   582                           ; 1 bytes @ 0x0
   583                           
   584  0070                     ?_isr:	
   585                           ; 1 bytes @ 0x0
   586                           
   587  0070                     ?_main:	
   588                           ; 1 bytes @ 0x0
   589                           
   590  0070                     ?_spiReceiveWait:	
   591                           ; 1 bytes @ 0x0
   592                           
   593  0070                     ??_spiReceiveWait:	
   594                           ; 1 bytes @ 0x0
   595                           
   596  0070                     ?__Umul8_16:	
   597                           ; 1 bytes @ 0x0
   598                           
   599  0070                     ?___xxtofl:	
   600                           ; 2 bytes @ 0x0
   601                           
   602  0070                     spiWrite@dat:	
   603                           ; 4 bytes @ 0x0
   604                           
   605  0070                     __Umul8_16@multiplicand:	
   606                           ; 1 bytes @ 0x0
   607                           
   608  0070                     ___xxtofl@val:	
   609                           ; 1 bytes @ 0x0
   610                           
   611                           
   612                           ; 4 bytes @ 0x0
   613  0070                     	ds	2
   614  0072                     ??__Umul8_16:
   615                           
   616                           ; 1 bytes @ 0x2
   617  0072                     	ds	2
   618  0074                     ??___xxtofl:
   619  0074                     __Umul8_16@product:	
   620                           ; 1 bytes @ 0x4
   621                           
   622                           
   623                           ; 2 bytes @ 0x4
   624  0074                     	ds	2
   625  0076                     __Umul8_16@word_mpld:
   626                           
   627                           ; 2 bytes @ 0x6
   628  0076                     	ds	2
   629  0078                     __Umul8_16@multiplier:
   630  0078                     ___xxtofl@sign:	
   631                           ; 1 bytes @ 0x8
   632                           
   633                           
   634                           ; 1 bytes @ 0x8
   635  0078                     	ds	1
   636  0079                     ___xxtofl@exp:
   637                           
   638                           ; 1 bytes @ 0x9
   639  0079                     	ds	1
   640  007A                     ___xxtofl@arg:
   641                           
   642                           ; 4 bytes @ 0xA
   643  007A                     	ds	4
   644  007E                     ??_map:
   645                           
   646                           	psect	cstackBANK0
   647  0020                     __pcstackBANK0:	
   648                           ; 1 bytes @ 0xE
   649                           
   650  0020                     ?___fldiv:
   651  0020                     ___fldiv@a:	
   652                           ; 4 bytes @ 0x0
   653                           
   654                           
   655                           ; 4 bytes @ 0x0
   656  0020                     	ds	4
   657  0024                     ___fldiv@b:
   658                           
   659                           ; 4 bytes @ 0x4
   660  0024                     	ds	4
   661  0028                     ??___fldiv:
   662                           
   663                           ; 1 bytes @ 0x8
   664  0028                     	ds	5
   665  002D                     ___fldiv@rem:
   666                           
   667                           ; 4 bytes @ 0xD
   668  002D                     	ds	4
   669  0031                     ___fldiv@sign:
   670                           
   671                           ; 1 bytes @ 0x11
   672  0031                     	ds	1
   673  0032                     ___fldiv@new_exp:
   674                           
   675                           ; 2 bytes @ 0x12
   676  0032                     	ds	2
   677  0034                     ___fldiv@grs:
   678                           
   679                           ; 4 bytes @ 0x14
   680  0034                     	ds	4
   681  0038                     ___fldiv@bexp:
   682                           
   683                           ; 1 bytes @ 0x18
   684  0038                     	ds	1
   685  0039                     ___fldiv@aexp:
   686                           
   687                           ; 1 bytes @ 0x19
   688  0039                     	ds	1
   689  003A                     ?___flmul:
   690  003A                     ___flmul@b:	
   691                           ; 4 bytes @ 0x1A
   692                           
   693                           
   694                           ; 4 bytes @ 0x1A
   695  003A                     	ds	4
   696  003E                     ___flmul@a:
   697                           
   698                           ; 4 bytes @ 0x1E
   699  003E                     	ds	4
   700  0042                     ??___flmul:
   701                           
   702                           ; 1 bytes @ 0x22
   703  0042                     	ds	5
   704  0047                     ___flmul@sign:
   705                           
   706                           ; 1 bytes @ 0x27
   707  0047                     	ds	1
   708  0048                     ___flmul@grs:
   709                           
   710                           ; 4 bytes @ 0x28
   711  0048                     	ds	4
   712  004C                     ___flmul@aexp:
   713                           
   714                           ; 1 bytes @ 0x2C
   715  004C                     	ds	1
   716  004D                     ___flmul@bexp:
   717                           
   718                           ; 1 bytes @ 0x2D
   719  004D                     	ds	1
   720  004E                     ___flmul@prod:
   721                           
   722                           ; 4 bytes @ 0x2E
   723  004E                     	ds	4
   724  0052                     ___flmul@temp:
   725                           
   726                           ; 2 bytes @ 0x32
   727  0052                     	ds	2
   728  0054                     ?___fladd:
   729  0054                     ___fladd@b:	
   730                           ; 4 bytes @ 0x34
   731                           
   732                           
   733                           ; 4 bytes @ 0x34
   734  0054                     	ds	4
   735  0058                     ___fladd@a:
   736                           
   737                           ; 4 bytes @ 0x38
   738  0058                     	ds	4
   739  005C                     ??___fladd:
   740                           
   741                           ; 1 bytes @ 0x3C
   742  005C                     	ds	8
   743  0064                     ___fladd@signs:
   744                           
   745                           ; 1 bytes @ 0x44
   746  0064                     	ds	1
   747  0065                     ___fladd@aexp:
   748                           
   749                           ; 1 bytes @ 0x45
   750  0065                     	ds	1
   751  0066                     ___fladd@bexp:
   752                           
   753                           ; 1 bytes @ 0x46
   754  0066                     	ds	1
   755  0067                     ___fladd@grs:
   756                           
   757                           ; 1 bytes @ 0x47
   758  0067                     	ds	1
   759  0068                     ?___fltol:
   760  0068                     ___fltol@f1:	
   761                           ; 4 bytes @ 0x48
   762                           
   763                           
   764                           ; 4 bytes @ 0x48
   765  0068                     	ds	4
   766  006C                     ___fltol@sign1:
   767                           
   768                           ; 1 bytes @ 0x4C
   769  006C                     	ds	1
   770  006D                     ___fltol@exp1:
   771                           
   772                           ; 1 bytes @ 0x4D
   773  006D                     	ds	1
   774  006E                     map@x:
   775                           
   776                           ; 1 bytes @ 0x4E
   777  006E                     	ds	1
   778                           
   779                           	psect	maintext
   780  0D12                     __pmaintext:	
   781 ;;
   782 ;;Main: autosize = 0, tempsize = 1, incstack = 0, save=0
   783 ;;
   784 ;; *************** function _main *****************
   785 ;; Defined at:
   786 ;;		line 60 in file "main_masterP1D2.c"
   787 ;; Parameters:    Size  Location     Type
   788 ;;		None
   789 ;; Auto vars:     Size  Location     Type
   790 ;;		None
   791 ;; Return value:  Size  Location     Type
   792 ;;                  1    wreg      void 
   793 ;; Registers used:
   794 ;;		wreg, status,2, status,0
   795 ;; Tracked objects:
   796 ;;		On entry : B00/0
   797 ;;		On exit  : 0/0
   798 ;;		Unchanged: 0/0
   799 ;; Data sizes:     COMMON   BANK0   BANK1   BANK3   BANK2
   800 ;;      Params:         0       0       0       0       0
   801 ;;      Locals:         0       0       0       0       0
   802 ;;      Temps:          0       0       1       0       0
   803 ;;      Totals:         0       0       1       0       0
   804 ;;Total ram usage:        1 bytes
   805 ;; Hardware stack levels required when called: 4
   806 ;; This function calls:
   807 ;;		Nothing
   808 ;; This function is called by:
   809 ;;		Startup code after reset
   810 ;; This function uses a non-reentrant model
   811 ;;
   812                           
   813  0D12                     _main:	
   814                           ;psect for function _main
   815                           
   816  0D12                     l148:	
   817                           ;incstack = 0
   818                           ; Regs used in _main: [wreg+status,2+status,0]
   819                           ;main_masterP1D2.c: 61:     while(1){
   820                           
   821                           
   822                           ;main_masterP1D2.c: 62:         if (PIR1bits.TXIF){
   823  0D12  1283               	bcf	3,5	;RP0=0, select bank0
   824  0D13  1303               	bcf	3,6	;RP1=0, select bank0
   825  0D14  1E0C               	btfss	12,4	;volatile
   826  0D15  2D17               	goto	u3121
   827  0D16  2D18               	goto	u3120
   828  0D17                     u3121:
   829  0D17  2D1E               	goto	l2230
   830  0D18                     u3120:
   831  0D18                     l2228:
   832                           
   833                           ;main_masterP1D2.c: 63:             TXREG = mensaje;
   834  0D18  1683               	bsf	3,5	;RP0=1, select bank1
   835  0D19  1303               	bcf	3,6	;RP1=0, select bank1
   836  0D1A  0838               	movf	_mensaje^(0+128),w
   837  0D1B  1283               	bcf	3,5	;RP0=0, select bank0
   838  0D1C  1303               	bcf	3,6	;RP1=0, select bank0
   839  0D1D  0099               	movwf	25	;volatile
   840  0D1E                     l2230:
   841                           
   842                           ;main_masterP1D2.c: 67:         if(ADCON0bits.GO == 0){
   843  0D1E  189F               	btfsc	31,1	;volatile
   844  0D1F  2D21               	goto	u3131
   845  0D20  2D22               	goto	u3130
   846  0D21                     u3131:
   847  0D21  2D12               	goto	l148
   848  0D22                     u3130:
   849  0D22                     l2232:
   850                           
   851                           ;main_masterP1D2.c: 68:             if(ADCON0bits.CHS == 0b0000)
   852  0D22  0C1F               	rrf	31,w	;volatile
   853  0D23  1683               	bsf	3,5	;RP0=1, select bank1
   854  0D24  1303               	bcf	3,6	;RP1=0, select bank1
   855  0D25  00B0               	movwf	??_main^(0+128)
   856  0D26  0C30               	rrf	??_main^(0+128),w
   857  0D27  390F               	andlw	15
   858  0D28  3A00               	xorlw	0
   859  0D29  1D03               	skipz
   860  0D2A  2D2C               	goto	u3141
   861  0D2B  2D2D               	goto	u3140
   862  0D2C                     u3141:
   863  0D2C  2D34               	goto	l2236
   864  0D2D                     u3140:
   865  0D2D                     l2234:
   866                           
   867                           ;main_masterP1D2.c: 69:                 ADCON0bits.CHS = 0b0001;
   868  0D2D  1283               	bcf	3,5	;RP0=0, select bank0
   869  0D2E  1303               	bcf	3,6	;RP1=0, select bank0
   870  0D2F  081F               	movf	31,w	;volatile
   871  0D30  39C3               	andlw	-61
   872  0D31  3804               	iorlw	4
   873  0D32  009F               	movwf	31	;volatile
   874  0D33  2D45               	goto	l2240
   875  0D34                     l2236:
   876  0D34  1283               	bcf	3,5	;RP0=0, select bank0
   877  0D35  1303               	bcf	3,6	;RP1=0, select bank0
   878  0D36  0C1F               	rrf	31,w	;volatile
   879  0D37  1683               	bsf	3,5	;RP0=1, select bank1
   880  0D38  1303               	bcf	3,6	;RP1=0, select bank1
   881  0D39  00B0               	movwf	??_main^(0+128)
   882  0D3A  0C30               	rrf	??_main^(0+128),w
   883  0D3B  390F               	andlw	15
   884  0D3C  3A01               	xorlw	1
   885  0D3D  1D03               	skipz
   886  0D3E  2D40               	goto	u3151
   887  0D3F  2D41               	goto	u3150
   888  0D40                     u3151:
   889  0D40  2D45               	goto	l2240
   890  0D41                     u3150:
   891  0D41                     l2238:
   892                           
   893                           ;main_masterP1D2.c: 71:                 ADCON0bits.CHS = 0b0000;
   894  0D41  30C3               	movlw	-61
   895  0D42  1283               	bcf	3,5	;RP0=0, select bank0
   896  0D43  1303               	bcf	3,6	;RP1=0, select bank0
   897  0D44  059F               	andwf	31,f	;volatile
   898  0D45                     l2240:
   899                           
   900                           ;main_masterP1D2.c: 72:             _delay((unsigned long)((40)*(4000000/4000000.0)));
   901  0D45  300C               	movlw	12
   902  0D46  1683               	bsf	3,5	;RP0=1, select bank1
   903  0D47  1303               	bcf	3,6	;RP1=0, select bank1
   904  0D48  00B0               	movwf	??_main^(0+128)
   905  0D49                     u3167:
   906  0D49  0BB0               	decfsz	??_main^(0+128),f
   907  0D4A  2D49               	goto	u3167
   908  0D4B  0000               	nop
   909  0D4C                     l2242:
   910                           
   911                           ;main_masterP1D2.c: 73:             ADCON0bits.GO = 1;
   912  0D4C  1283               	bcf	3,5	;RP0=0, select bank0
   913  0D4D  1303               	bcf	3,6	;RP1=0, select bank0
   914  0D4E  149F               	bsf	31,1	;volatile
   915  0D4F  2D12               	goto	l148
   916  0D50  120A  118A  2810   	ljmp	start
   917  0D53                     __end_of_main:
   918                           
   919                           	psect	text1
   920  0DEF                     __ptext1:	
   921 ;; *************** function _isr *****************
   922 ;; Defined at:
   923 ;;		line 30 in file "main_masterP1D2.c"
   924 ;; Parameters:    Size  Location     Type
   925 ;;		None
   926 ;; Auto vars:     Size  Location     Type
   927 ;;		None
   928 ;; Return value:  Size  Location     Type
   929 ;;                  1    wreg      void 
   930 ;; Registers used:
   931 ;;		wreg, status,2, status,0, btemp+1, pclath, cstack
   932 ;; Tracked objects:
   933 ;;		On entry : 0/0
   934 ;;		On exit  : 0/0
   935 ;;		Unchanged: 0/0
   936 ;; Data sizes:     COMMON   BANK0   BANK1   BANK3   BANK2
   937 ;;      Params:         0       0       0       0       0
   938 ;;      Locals:         0       0       0       0       0
   939 ;;      Temps:          0       0       5       0       0
   940 ;;      Totals:         0       0       5       0       0
   941 ;;Total ram usage:        5 bytes
   942 ;; Hardware stack levels used: 1
   943 ;; Hardware stack levels required when called: 3
   944 ;; This function calls:
   945 ;;		_map
   946 ;;		_spiRead
   947 ;;		_spiWrite
   948 ;; This function is called by:
   949 ;;		Interrupt level 1
   950 ;; This function uses a non-reentrant model
   951 ;;
   952                           
   953  0DEF                     _isr:	
   954                           ;psect for function _isr
   955                           
   956  0DEF                     i1l2190:
   957                           
   958                           ;main_masterP1D2.c: 31:     if (PIR1bits.RCIF){
   959  0DEF  1283               	bcf	3,5	;RP0=0, select bank0
   960  0DF0  1303               	bcf	3,6	;RP1=0, select bank0
   961  0DF1  1E8C               	btfss	12,5	;volatile
   962  0DF2  2DF4               	goto	u304_21
   963  0DF3  2DF5               	goto	u304_20
   964  0DF4                     u304_21:
   965  0DF4  2DFB               	goto	i1l2194
   966  0DF5                     u304_20:
   967  0DF5                     i1l2192:
   968                           
   969                           ;main_masterP1D2.c: 32:         mensaje = RCREG;
   970  0DF5  081A               	movf	26,w	;volatile
   971  0DF6  1683               	bsf	3,5	;RP0=1, select bank1
   972  0DF7  1303               	bcf	3,6	;RP1=0, select bank1
   973  0DF8  00AB               	movwf	??_isr^(0+128)
   974  0DF9  082B               	movf	??_isr^(0+128),w
   975  0DFA  00B8               	movwf	_mensaje^(0+128)
   976  0DFB                     i1l2194:
   977                           
   978                           ;main_masterP1D2.c: 35:     if (PIR1bits.SSPIF){
   979  0DFB  1283               	bcf	3,5	;RP0=0, select bank0
   980  0DFC  1D8C               	btfss	12,3	;volatile
   981  0DFD  2DFF               	goto	u305_21
   982  0DFE  2E00               	goto	u305_20
   983  0DFF                     u305_21:
   984  0DFF  2E40               	goto	i1l2216
   985  0E00                     u305_20:
   986  0E00                     i1l2196:
   987                           
   988                           ;main_masterP1D2.c: 36:         ENVIO = spiRead();
   989  0E00  120A  118A  27EC  120A  158A  	fcall	_spiRead
   990  0E05  1683               	bsf	3,5	;RP0=1, select bank1
   991  0E06  1303               	bcf	3,6	;RP1=0, select bank1
   992  0E07  00AB               	movwf	??_isr^(0+128)
   993  0E08  082B               	movf	??_isr^(0+128),w
   994  0E09  00B7               	movwf	_ENVIO^(0+128)
   995  0E0A                     i1l2198:
   996                           
   997                           ;main_masterP1D2.c: 37:         if (ENVIO == 1){
   998  0E0A  0337               	decf	_ENVIO^(0+128),w
   999  0E0B  1D03               	btfss	3,2
  1000  0E0C  2E0E               	goto	u306_21
  1001  0E0D  2E0F               	goto	u306_20
  1002  0E0E                     u306_21:
  1003  0E0E  2E16               	goto	i1l2202
  1004  0E0F                     u306_20:
  1005  0E0F                     i1l2200:
  1006                           
  1007                           ;main_masterP1D2.c: 38:             spiWrite(reloj);
  1008  0E0F  0836               	movf	_reloj^(0+128),w
  1009  0E10  120A  158A  24E5  120A  158A  	fcall	_spiWrite
  1010                           
  1011                           ;main_masterP1D2.c: 39:         } else if (ENVIO == 2) {
  1012  0E15  2E3D               	goto	i1l2214
  1013  0E16                     i1l2202:
  1014  0E16  3002               	movlw	2
  1015  0E17  0637               	xorwf	_ENVIO^(0+128),w
  1016  0E18  1D03               	btfss	3,2
  1017  0E19  2E1B               	goto	u307_21
  1018  0E1A  2E1C               	goto	u307_20
  1019  0E1B                     u307_21:
  1020  0E1B  2E23               	goto	i1l2206
  1021  0E1C                     u307_20:
  1022  0E1C                     i1l2204:
  1023                           
  1024                           ;main_masterP1D2.c: 40:             spiWrite(presion);
  1025  0E1C  0835               	movf	_presion^(0+128),w
  1026  0E1D  120A  158A  24E5  120A  158A  	fcall	_spiWrite
  1027                           
  1028                           ;main_masterP1D2.c: 41:         } else if (ENVIO == 3){
  1029  0E22  2E3D               	goto	i1l2214
  1030  0E23                     i1l2206:
  1031  0E23  3003               	movlw	3
  1032  0E24  0637               	xorwf	_ENVIO^(0+128),w
  1033  0E25  1D03               	btfss	3,2
  1034  0E26  2E28               	goto	u308_21
  1035  0E27  2E29               	goto	u308_20
  1036  0E28                     u308_21:
  1037  0E28  2E30               	goto	i1l2210
  1038  0E29                     u308_20:
  1039  0E29                     i1l2208:
  1040                           
  1041                           ;main_masterP1D2.c: 42:             spiWrite(pot);
  1042  0E29  0834               	movf	_pot^(0+128),w
  1043  0E2A  120A  158A  24E5  120A  158A  	fcall	_spiWrite
  1044                           
  1045                           ;main_masterP1D2.c: 43:         } else if (ENVIO == 4){
  1046  0E2F  2E3D               	goto	i1l2214
  1047  0E30                     i1l2210:
  1048  0E30  3004               	movlw	4
  1049  0E31  0637               	xorwf	_ENVIO^(0+128),w
  1050  0E32  1D03               	btfss	3,2
  1051  0E33  2E35               	goto	u309_21
  1052  0E34  2E36               	goto	u309_20
  1053  0E35                     u309_21:
  1054  0E35  2E3D               	goto	i1l137
  1055  0E36                     u309_20:
  1056  0E36                     i1l2212:
  1057                           
  1058                           ;main_masterP1D2.c: 44:             spiWrite(boton);
  1059  0E36  0833               	movf	_boton^(0+128),w
  1060  0E37  120A  158A  24E5  120A  158A  	fcall	_spiWrite
  1061  0E3C  2E3D               	goto	i1l2214
  1062  0E3D                     i1l137:
  1063  0E3D                     i1l2214:
  1064                           
  1065                           ;main_masterP1D2.c: 46:         PIR1bits.SSPIF = 0;
  1066  0E3D  1283               	bcf	3,5	;RP0=0, select bank0
  1067  0E3E  1303               	bcf	3,6	;RP1=0, select bank0
  1068  0E3F  118C               	bcf	12,3	;volatile
  1069  0E40                     i1l2216:
  1070                           
  1071                           ;main_masterP1D2.c: 48:     if(PIR1bits.ADIF){
  1072  0E40  1F0C               	btfss	12,6	;volatile
  1073  0E41  2E43               	goto	u310_21
  1074  0E42  2E44               	goto	u310_20
  1075  0E43                     u310_21:
  1076  0E43  2E89               	goto	i1l143
  1077  0E44                     u310_20:
  1078  0E44                     i1l2218:
  1079                           
  1080                           ;main_masterP1D2.c: 49:         if(ADCON0bits.CHS == 0){
  1081  0E44  0C1F               	rrf	31,w	;volatile
  1082  0E45  1683               	bsf	3,5	;RP0=1, select bank1
  1083  0E46  1303               	bcf	3,6	;RP1=0, select bank1
  1084  0E47  00AB               	movwf	??_isr^(0+128)
  1085  0E48  0C2B               	rrf	??_isr^(0+128),w
  1086  0E49  390F               	andlw	15
  1087  0E4A  3A00               	xorlw	0
  1088  0E4B  1D03               	skipz
  1089  0E4C  2E4E               	goto	u311_21
  1090  0E4D  2E4F               	goto	u311_20
  1091  0E4E                     u311_21:
  1092  0E4E  2E89               	goto	i1l143
  1093  0E4F                     u311_20:
  1094  0E4F                     i1l2220:
  1095                           
  1096                           ;main_masterP1D2.c: 50:             CCPR = map(ADRESH, 0, 255, 0, 500);
  1097  0E4F  01A5               	clrf	map@x0^(0+128)
  1098  0E50  30FF               	movlw	255
  1099  0E51  00AB               	movwf	??_isr^(0+128)
  1100  0E52  082B               	movf	??_isr^(0+128),w
  1101  0E53  00A6               	movwf	map@x1^(0+128)
  1102  0E54  3000               	movlw	0
  1103  0E55  00A7               	movwf	map@y0^(0+128)
  1104  0E56  00A8               	movwf	(map@y0+1)^(0+128)
  1105  0E57  30F4               	movlw	244
  1106  0E58  00A9               	movwf	map@y1^(0+128)
  1107  0E59  3001               	movlw	1
  1108  0E5A  00AA               	movwf	(map@y1^(0+128)+1)
  1109  0E5B  1283               	bcf	3,5	;RP0=0, select bank0
  1110  0E5C  1303               	bcf	3,6	;RP1=0, select bank0
  1111  0E5D  081E               	movf	30,w	;volatile
  1112  0E5E  120A  158A  2694  120A  158A  	fcall	_map
  1113  0E63  1683               	bsf	3,5	;RP0=1, select bank1
  1114  0E64  1303               	bcf	3,6	;RP1=0, select bank1
  1115  0E65  0826               	movf	(?_map+1)^(0+128),w
  1116  0E66  00B2               	movwf	(_CCPR+1)^(0+128)
  1117  0E67  0825               	movf	?_map^(0+128),w
  1118  0E68  00B1               	movwf	_CCPR^(0+128)
  1119  0E69                     i1l2222:
  1120                           
  1121                           ;main_masterP1D2.c: 51:             CCPR1L = (uint8_t)(CCPR>>2);
  1122  0E69  0832               	movf	(_CCPR+1)^(0+128),w
  1123  0E6A  00AC               	movwf	(??_isr^(0+128)+1)
  1124  0E6B  0831               	movf	_CCPR^(0+128),w
  1125  0E6C  00AB               	movwf	??_isr^(0+128)
  1126  0E6D  1003               	clrc
  1127  0E6E  0CAC               	rrf	(??_isr^(0+128)+1),f
  1128  0E6F  0CAB               	rrf	??_isr^(0+128),f
  1129  0E70  1003               	clrc
  1130  0E71  0CAC               	rrf	(??_isr^(0+128)+1),f
  1131  0E72  0CAB               	rrf	??_isr^(0+128),f
  1132  0E73  082B               	movf	??_isr^(0+128),w
  1133  0E74  1283               	bcf	3,5	;RP0=0, select bank0
  1134  0E75  1303               	bcf	3,6	;RP1=0, select bank0
  1135  0E76  0095               	movwf	21	;volatile
  1136  0E77                     i1l2224:
  1137                           
  1138                           ;main_masterP1D2.c: 52:             CCP1CONbits.DC1B = CCPR & 0b11;
  1139  0E77  1683               	bsf	3,5	;RP0=1, select bank1
  1140  0E78  1303               	bcf	3,6	;RP1=0, select bank1
  1141  0E79  0831               	movf	_CCPR^(0+128),w
  1142  0E7A  3903               	andlw	3
  1143  0E7B  00AB               	movwf	??_isr^(0+128)
  1144  0E7C  0EAB               	swapf	??_isr^(0+128),f
  1145  0E7D  1283               	bcf	3,5	;RP0=0, select bank0
  1146  0E7E  1303               	bcf	3,6	;RP1=0, select bank0
  1147  0E7F  0817               	movf	23,w	;volatile
  1148  0E80  1683               	bsf	3,5	;RP0=1, select bank1
  1149  0E81  1303               	bcf	3,6	;RP1=0, select bank1
  1150  0E82  062B               	xorwf	??_isr^(0+128),w
  1151  0E83  39CF               	andlw	-49
  1152  0E84  062B               	xorwf	??_isr^(0+128),w
  1153  0E85  1283               	bcf	3,5	;RP0=0, select bank0
  1154  0E86  1303               	bcf	3,6	;RP1=0, select bank0
  1155  0E87  0097               	movwf	23	;volatile
  1156  0E88                     i1l2226:
  1157                           
  1158                           ;main_masterP1D2.c: 53:             PIR1bits.ADIF = 0;
  1159  0E88  130C               	bcf	12,6	;volatile
  1160  0E89                     i1l143:
  1161  0E89  1683               	bsf	3,5	;RP0=1, select bank1
  1162  0E8A  1303               	bcf	3,6	;RP1=0, select bank1
  1163  0E8B  082F               	movf	(??_isr+4)^(0+128),w
  1164  0E8C  00FF               	movwf	btemp+1
  1165  0E8D  082E               	movf	(??_isr+3)^(0+128),w
  1166  0E8E  008A               	movwf	10
  1167  0E8F  0E2D               	swapf	(??_isr+2)^(0+128),w
  1168  0E90  0083               	movwf	3
  1169  0E91  0EFE               	swapf	btemp,f
  1170  0E92  0E7E               	swapf	btemp,w
  1171  0E93  0009               	retfie
  1172  0E94                     __end_of_isr:
  1173                           
  1174                           	psect	intentry
  1175  0004                     __pintentry:	
  1176                           ;incstack = 0
  1177                           ; Regs used in _isr: [wreg+status,2+status,0+btemp+1+pclath+cstack]
  1178                           
  1179  0004                     interrupt_function:
  1180  007E                     saved_w	set	btemp
  1181  0004  00FE               	movwf	btemp
  1182  0005  0E03               	swapf	3,w
  1183  0006  1683               	bsf	3,5	;RP0=1, select bank1
  1184  0007  1303               	bcf	3,6	;RP1=0, select bank1
  1185  0008  00AD               	movwf	(??_isr+2)^(0+128)
  1186  0009  080A               	movf	10,w
  1187  000A  00AE               	movwf	(??_isr+3)^(0+128)
  1188  000B  087F               	movf	btemp+1,w
  1189  000C  00AF               	movwf	(??_isr+4)^(0+128)
  1190  000D  120A  158A  2DEF   	ljmp	_isr
  1191                           
  1192                           	psect	text2
  1193  0CE5                     __ptext2:	
  1194 ;; *************** function _spiWrite *****************
  1195 ;; Defined at:
  1196 ;;		line 34 in file "SPI.c"
  1197 ;; Parameters:    Size  Location     Type
  1198 ;;  dat             1    wreg     unsigned char 
  1199 ;; Auto vars:     Size  Location     Type
  1200 ;;  dat             1    0[COMMON] unsigned char 
  1201 ;; Return value:  Size  Location     Type
  1202 ;;                  1    wreg      void 
  1203 ;; Registers used:
  1204 ;;		wreg
  1205 ;; Tracked objects:
  1206 ;;		On entry : 0/0
  1207 ;;		On exit  : 0/0
  1208 ;;		Unchanged: 0/0
  1209 ;; Data sizes:     COMMON   BANK0   BANK1   BANK3   BANK2
  1210 ;;      Params:         0       0       0       0       0
  1211 ;;      Locals:         1       0       0       0       0
  1212 ;;      Temps:          0       0       0       0       0
  1213 ;;      Totals:         1       0       0       0       0
  1214 ;;Total ram usage:        1 bytes
  1215 ;; Hardware stack levels used: 1
  1216 ;; This function calls:
  1217 ;;		Nothing
  1218 ;; This function is called by:
  1219 ;;		_isr
  1220 ;; This function uses a non-reentrant model
  1221 ;;
  1222                           
  1223  0CE5                     _spiWrite:	
  1224                           ;psect for function _spiWrite
  1225                           
  1226                           
  1227                           ;incstack = 0
  1228                           ; Regs used in _spiWrite: [wreg]
  1229                           ;spiWrite@dat stored from wreg
  1230  0CE5  00F0               	movwf	spiWrite@dat
  1231  0CE6                     i1l2184:
  1232                           
  1233                           ;SPI.c: 34: void spiWrite(char dat);SPI.c: 35: {;SPI.c: 36:     SSPBUF = dat;
  1234  0CE6  0870               	movf	spiWrite@dat,w
  1235  0CE7  1283               	bcf	3,5	;RP0=0, select bank0
  1236  0CE8  1303               	bcf	3,6	;RP1=0, select bank0
  1237  0CE9  0093               	movwf	19	;volatile
  1238  0CEA                     i1l188:
  1239  0CEA  0008               	return
  1240  0CEB                     __end_of_spiWrite:
  1241                           
  1242                           	psect	text3
  1243  07EC                     __ptext3:	
  1244 ;; *************** function _spiRead *****************
  1245 ;; Defined at:
  1246 ;;		line 47 in file "SPI.c"
  1247 ;; Parameters:    Size  Location     Type
  1248 ;;		None
  1249 ;; Auto vars:     Size  Location     Type
  1250 ;;		None
  1251 ;; Return value:  Size  Location     Type
  1252 ;;                  1    wreg      unsigned char 
  1253 ;; Registers used:
  1254 ;;		wreg, status,2, status,0, pclath, cstack
  1255 ;; Tracked objects:
  1256 ;;		On entry : 0/0
  1257 ;;		On exit  : 0/0
  1258 ;;		Unchanged: 0/0
  1259 ;; Data sizes:     COMMON   BANK0   BANK1   BANK3   BANK2
  1260 ;;      Params:         0       0       0       0       0
  1261 ;;      Locals:         0       0       0       0       0
  1262 ;;      Temps:          0       0       0       0       0
  1263 ;;      Totals:         0       0       0       0       0
  1264 ;;Total ram usage:        0 bytes
  1265 ;; Hardware stack levels used: 1
  1266 ;; Hardware stack levels required when called: 1
  1267 ;; This function calls:
  1268 ;;		_spiReceiveWait
  1269 ;; This function is called by:
  1270 ;;		_isr
  1271 ;; This function uses a non-reentrant model
  1272 ;;
  1273                           
  1274  07EC                     _spiRead:	
  1275                           ;psect for function _spiRead
  1276                           
  1277  07EC                     i1l2178:	
  1278                           ;incstack = 0
  1279                           ; Regs used in _spiRead: [wreg+status,2+status,0+pclath+cstack]
  1280                           
  1281                           
  1282                           ;SPI.c: 49:     spiReceiveWait();
  1283  07EC  120A  118A  27F5  120A  118A  	fcall	_spiReceiveWait
  1284  07F1                     i1l2180:
  1285                           
  1286                           ;SPI.c: 50:     return(SSPBUF);
  1287  07F1  1283               	bcf	3,5	;RP0=0, select bank0
  1288  07F2  1303               	bcf	3,6	;RP1=0, select bank0
  1289  07F3  0813               	movf	19,w	;volatile
  1290  07F4                     i1l196:
  1291  07F4  0008               	return
  1292  07F5                     __end_of_spiRead:
  1293                           
  1294                           	psect	text4
  1295  07F5                     __ptext4:	
  1296 ;; *************** function _spiReceiveWait *****************
  1297 ;; Defined at:
  1298 ;;		line 29 in file "SPI.c"
  1299 ;; Parameters:    Size  Location     Type
  1300 ;;		None
  1301 ;; Auto vars:     Size  Location     Type
  1302 ;;		None
  1303 ;; Return value:  Size  Location     Type
  1304 ;;                  1    wreg      void 
  1305 ;; Registers used:
  1306 ;;		None
  1307 ;; Tracked objects:
  1308 ;;		On entry : 0/0
  1309 ;;		On exit  : 0/0
  1310 ;;		Unchanged: 0/0
  1311 ;; Data sizes:     COMMON   BANK0   BANK1   BANK3   BANK2
  1312 ;;      Params:         0       0       0       0       0
  1313 ;;      Locals:         0       0       0       0       0
  1314 ;;      Temps:          0       0       0       0       0
  1315 ;;      Totals:         0       0       0       0       0
  1316 ;;Total ram usage:        0 bytes
  1317 ;; Hardware stack levels used: 1
  1318 ;; This function calls:
  1319 ;;		Nothing
  1320 ;; This function is called by:
  1321 ;;		_spiRead
  1322 ;; This function uses a non-reentrant model
  1323 ;;
  1324                           
  1325  07F5                     _spiReceiveWait:	
  1326                           ;psect for function _spiReceiveWait
  1327                           
  1328  07F5                     i1l1620:	
  1329                           ;incstack = 0
  1330                           ; Regs used in _spiReceiveWait: []
  1331                           
  1332  07F5                     i1l182:	
  1333                           ;SPI.c: 31:     while ( !SSPSTATbits.BF );
  1334                           
  1335  07F5  1683               	bsf	3,5	;RP0=1, select bank1
  1336  07F6  1303               	bcf	3,6	;RP1=0, select bank1
  1337  07F7  1C14               	btfss	20,0	;volatile
  1338  07F8  2FFA               	goto	u167_21
  1339  07F9  2FFB               	goto	u167_20
  1340  07FA                     u167_21:
  1341  07FA  2FF5               	goto	i1l182
  1342  07FB                     u167_20:
  1343  07FB                     i1l185:
  1344  07FB  0008               	return
  1345  07FC                     __end_of_spiReceiveWait:
  1346                           
  1347                           	psect	text5
  1348  0E94                     __ptext5:	
  1349 ;; *************** function _map *****************
  1350 ;; Defined at:
  1351 ;;		line 134 in file "main_masterP1D2.c"
  1352 ;; Parameters:    Size  Location     Type
  1353 ;;  x               1    wreg     unsigned char 
  1354 ;;  x0              1    5[BANK1 ] unsigned char 
  1355 ;;  x1              1    6[BANK1 ] unsigned char 
  1356 ;;  y0              2    7[BANK1 ] unsigned short 
  1357 ;;  y1              2    9[BANK1 ] unsigned short 
  1358 ;; Auto vars:     Size  Location     Type
  1359 ;;  x               1   78[BANK0 ] unsigned char 
  1360 ;; Return value:  Size  Location     Type
  1361 ;;                  2    5[BANK1 ] unsigned short 
  1362 ;; Registers used:
  1363 ;;		wreg, status,2, status,0, btemp+1, pclath, cstack
  1364 ;; Tracked objects:
  1365 ;;		On entry : 0/0
  1366 ;;		On exit  : 0/0
  1367 ;;		Unchanged: 0/0
  1368 ;; Data sizes:     COMMON   BANK0   BANK1   BANK3   BANK2
  1369 ;;      Params:         0       0       6       0       0
  1370 ;;      Locals:         0       1       0       0       0
  1371 ;;      Temps:          0       0       0       0       0
  1372 ;;      Totals:         0       1       6       0       0
  1373 ;;Total ram usage:        7 bytes
  1374 ;; Hardware stack levels used: 1
  1375 ;; Hardware stack levels required when called: 2
  1376 ;; This function calls:
  1377 ;;		___fladd
  1378 ;;		___fldiv
  1379 ;;		___flmul
  1380 ;;		___fltol
  1381 ;;		___xxtofl
  1382 ;; This function is called by:
  1383 ;;		_isr
  1384 ;; This function uses a non-reentrant model
  1385 ;;
  1386                           
  1387  0E94                     _map:	
  1388                           ;psect for function _map
  1389                           
  1390                           
  1391                           ;incstack = 0
  1392                           ; Regs used in _map: [wreg+status,2+status,0+btemp+1+pclath+cstack]
  1393                           ;map@x stored from wreg
  1394  0E94  1283               	bcf	3,5	;RP0=0, select bank0
  1395  0E95  1303               	bcf	3,6	;RP1=0, select bank0
  1396  0E96  00EE               	movwf	map@x
  1397  0E97                     i1l2186:
  1398                           
  1399                           ;main_masterP1D2.c: 134: unsigned short map(uint8_t x, uint8_t x0, uint8_t x1,;main_mast
      +                          erP1D2.c: 135:             unsigned short y0, unsigned short y1){;main_masterP1D2.c: 136
      +                          :     return (unsigned short)(y0+((float)(y1-y0)/(x1-x0))*(x-x0));
  1400  0E97  1683               	bsf	3,5	;RP0=1, select bank1
  1401  0E98  1303               	bcf	3,6	;RP1=0, select bank1
  1402  0E99  0827               	movf	map@y0^(0+128),w
  1403  0E9A  00F0               	movwf	___xxtofl@val
  1404  0E9B  0828               	movf	(map@y0+1)^(0+128),w
  1405  0E9C  00F1               	movwf	___xxtofl@val+1
  1406  0E9D  01F2               	clrf	___xxtofl@val+2
  1407  0E9E  01F3               	clrf	___xxtofl@val+3
  1408  0E9F  3000               	movlw	0
  1409  0EA0  120A  158A  2746  120A  158A  	fcall	___xxtofl
  1410  0EA5  0873               	movf	?___xxtofl+3,w
  1411  0EA6  1283               	bcf	3,5	;RP0=0, select bank0
  1412  0EA7  1303               	bcf	3,6	;RP1=0, select bank0
  1413  0EA8  00DB               	movwf	___fladd@a+3
  1414  0EA9  0872               	movf	?___xxtofl+2,w
  1415  0EAA  00DA               	movwf	___fladd@a+2
  1416  0EAB  0871               	movf	?___xxtofl+1,w
  1417  0EAC  00D9               	movwf	___fladd@a+1
  1418  0EAD  0870               	movf	?___xxtofl,w
  1419  0EAE  00D8               	movwf	___fladd@a
  1420  0EAF  1683               	bsf	3,5	;RP0=1, select bank1
  1421  0EB0  1303               	bcf	3,6	;RP1=0, select bank1
  1422  0EB1  0827               	movf	map@y0^(0+128),w
  1423  0EB2  0229               	subwf	map@y1^(0+128),w
  1424  0EB3  00F0               	movwf	___xxtofl@val
  1425  0EB4  0828               	movf	(map@y0+1)^(0+128),w
  1426  0EB5  1C03               	skipc
  1427  0EB6  0A28               	incf	(map@y0+1)^(0+128),w
  1428  0EB7  022A               	subwf	(map@y1+1)^(0+128),w
  1429  0EB8  00F1               	movwf	___xxtofl@val+1
  1430  0EB9  01F2               	clrf	___xxtofl@val+2
  1431  0EBA  01F3               	clrf	___xxtofl@val+3
  1432  0EBB  3000               	movlw	0
  1433  0EBC  120A  158A  2746  120A  158A  	fcall	___xxtofl
  1434  0EC1  0873               	movf	?___xxtofl+3,w
  1435  0EC2  1283               	bcf	3,5	;RP0=0, select bank0
  1436  0EC3  1303               	bcf	3,6	;RP1=0, select bank0
  1437  0EC4  00A7               	movwf	___fldiv@b+3
  1438  0EC5  0872               	movf	?___xxtofl+2,w
  1439  0EC6  00A6               	movwf	___fldiv@b+2
  1440  0EC7  0871               	movf	?___xxtofl+1,w
  1441  0EC8  00A5               	movwf	___fldiv@b+1
  1442  0EC9  0870               	movf	?___xxtofl,w
  1443  0ECA  00A4               	movwf	___fldiv@b
  1444  0ECB  1683               	bsf	3,5	;RP0=1, select bank1
  1445  0ECC  1303               	bcf	3,6	;RP1=0, select bank1
  1446  0ECD  0825               	movf	map@x0^(0+128),w
  1447  0ECE  0226               	subwf	map@x1^(0+128),w
  1448  0ECF  00F0               	movwf	___xxtofl@val
  1449  0ED0  01F1               	clrf	___xxtofl@val+1
  1450  0ED1  1C03               	skipc
  1451  0ED2  03F1               	decf	___xxtofl@val+1,f
  1452  0ED3  01F2               	clrf	___xxtofl@val+2
  1453  0ED4  1BF1               	btfsc	___xxtofl@val+1,7
  1454  0ED5  03F2               	decf	___xxtofl@val+2,f
  1455  0ED6  0872               	movf	___xxtofl@val+2,w
  1456  0ED7  00F3               	movwf	___xxtofl@val+3
  1457  0ED8  3001               	movlw	1
  1458  0ED9  120A  158A  2746  120A  158A  	fcall	___xxtofl
  1459  0EDE  0873               	movf	?___xxtofl+3,w
  1460  0EDF  1283               	bcf	3,5	;RP0=0, select bank0
  1461  0EE0  1303               	bcf	3,6	;RP1=0, select bank0
  1462  0EE1  00A3               	movwf	___fldiv@a+3
  1463  0EE2  0872               	movf	?___xxtofl+2,w
  1464  0EE3  00A2               	movwf	___fldiv@a+2
  1465  0EE4  0871               	movf	?___xxtofl+1,w
  1466  0EE5  00A1               	movwf	___fldiv@a+1
  1467  0EE6  0870               	movf	?___xxtofl,w
  1468  0EE7  00A0               	movwf	___fldiv@a
  1469  0EE8  120A  118A  260F  120A  158A  	fcall	___fldiv
  1470  0EED  1283               	bcf	3,5	;RP0=0, select bank0
  1471  0EEE  1303               	bcf	3,6	;RP1=0, select bank0
  1472  0EEF  0823               	movf	?___fldiv+3,w
  1473  0EF0  00C1               	movwf	___flmul@a+3
  1474  0EF1  0822               	movf	?___fldiv+2,w
  1475  0EF2  00C0               	movwf	___flmul@a+2
  1476  0EF3  0821               	movf	?___fldiv+1,w
  1477  0EF4  00BF               	movwf	___flmul@a+1
  1478  0EF5  0820               	movf	?___fldiv,w
  1479  0EF6  00BE               	movwf	___flmul@a
  1480  0EF7  1683               	bsf	3,5	;RP0=1, select bank1
  1481  0EF8  1303               	bcf	3,6	;RP1=0, select bank1
  1482  0EF9  0825               	movf	map@x0^(0+128),w
  1483  0EFA  1283               	bcf	3,5	;RP0=0, select bank0
  1484  0EFB  1303               	bcf	3,6	;RP1=0, select bank0
  1485  0EFC  026E               	subwf	map@x,w
  1486  0EFD  00F0               	movwf	___xxtofl@val
  1487  0EFE  01F1               	clrf	___xxtofl@val+1
  1488  0EFF  1C03               	skipc
  1489  0F00  03F1               	decf	___xxtofl@val+1,f
  1490  0F01  01F2               	clrf	___xxtofl@val+2
  1491  0F02  1BF1               	btfsc	___xxtofl@val+1,7
  1492  0F03  03F2               	decf	___xxtofl@val+2,f
  1493  0F04  0872               	movf	___xxtofl@val+2,w
  1494  0F05  00F3               	movwf	___xxtofl@val+3
  1495  0F06  3001               	movlw	1
  1496  0F07  120A  158A  2746  120A  158A  	fcall	___xxtofl
  1497  0F0C  0873               	movf	?___xxtofl+3,w
  1498  0F0D  1283               	bcf	3,5	;RP0=0, select bank0
  1499  0F0E  1303               	bcf	3,6	;RP1=0, select bank0
  1500  0F0F  00BD               	movwf	___flmul@b+3
  1501  0F10  0872               	movf	?___xxtofl+2,w
  1502  0F11  00BC               	movwf	___flmul@b+2
  1503  0F12  0871               	movf	?___xxtofl+1,w
  1504  0F13  00BB               	movwf	___flmul@b+1
  1505  0F14  0870               	movf	?___xxtofl,w
  1506  0F15  00BA               	movwf	___flmul@b
  1507  0F16  120A  118A  2026  120A  158A  	fcall	___flmul
  1508  0F1B  1283               	bcf	3,5	;RP0=0, select bank0
  1509  0F1C  1303               	bcf	3,6	;RP1=0, select bank0
  1510  0F1D  083D               	movf	?___flmul+3,w
  1511  0F1E  00D7               	movwf	___fladd@b+3
  1512  0F1F  083C               	movf	?___flmul+2,w
  1513  0F20  00D6               	movwf	___fladd@b+2
  1514  0F21  083B               	movf	?___flmul+1,w
  1515  0F22  00D5               	movwf	___fladd@b+1
  1516  0F23  083A               	movf	?___flmul,w
  1517  0F24  00D4               	movwf	___fladd@b
  1518  0F25  120A  118A  2387  120A  158A  	fcall	___fladd
  1519  0F2A  1283               	bcf	3,5	;RP0=0, select bank0
  1520  0F2B  1303               	bcf	3,6	;RP1=0, select bank0
  1521  0F2C  0857               	movf	?___fladd+3,w
  1522  0F2D  00EB               	movwf	___fltol@f1+3
  1523  0F2E  0856               	movf	?___fladd+2,w
  1524  0F2F  00EA               	movwf	___fltol@f1+2
  1525  0F30  0855               	movf	?___fladd+1,w
  1526  0F31  00E9               	movwf	___fltol@f1+1
  1527  0F32  0854               	movf	?___fladd,w
  1528  0F33  00E8               	movwf	___fltol@f1
  1529  0F34  120A  158A  2553  120A  158A  	fcall	___fltol
  1530  0F39  1283               	bcf	3,5	;RP0=0, select bank0
  1531  0F3A  1303               	bcf	3,6	;RP1=0, select bank0
  1532  0F3B  0869               	movf	?___fltol+1,w
  1533  0F3C  1683               	bsf	3,5	;RP0=1, select bank1
  1534  0F3D  1303               	bcf	3,6	;RP1=0, select bank1
  1535  0F3E  00A6               	movwf	(?_map+1)^(0+128)
  1536  0F3F  1283               	bcf	3,5	;RP0=0, select bank0
  1537  0F40  1303               	bcf	3,6	;RP1=0, select bank0
  1538  0F41  0868               	movf	?___fltol,w
  1539  0F42  1683               	bsf	3,5	;RP0=1, select bank1
  1540  0F43  1303               	bcf	3,6	;RP1=0, select bank1
  1541  0F44  00A5               	movwf	?_map^(0+128)
  1542  0F45                     i1l162:
  1543  0F45  0008               	return
  1544  0F46                     __end_of_map:
  1545                           
  1546                           	psect	text6
  1547  0F46                     __ptext6:	
  1548 ;; *************** function ___xxtofl *****************
  1549 ;; Defined at:
  1550 ;;		line 10 in file "C:\Program Files\Microchip\xc8\v2.35\pic\sources\c90\common\xxtofl.c"
  1551 ;; Parameters:    Size  Location     Type
  1552 ;;  sign            1    wreg     unsigned char 
  1553 ;;  val             4    0[COMMON] long 
  1554 ;; Auto vars:     Size  Location     Type
  1555 ;;  sign            1    8[COMMON] unsigned char 
  1556 ;;  arg             4   10[COMMON] unsigned long 
  1557 ;;  exp             1    9[COMMON] unsigned char 
  1558 ;; Return value:  Size  Location     Type
  1559 ;;                  4    0[COMMON] unsigned char 
  1560 ;; Registers used:
  1561 ;;		wreg, status,2, status,0
  1562 ;; Tracked objects:
  1563 ;;		On entry : 0/0
  1564 ;;		On exit  : 0/0
  1565 ;;		Unchanged: 0/0
  1566 ;; Data sizes:     COMMON   BANK0   BANK1   BANK3   BANK2
  1567 ;;      Params:         4       0       0       0       0
  1568 ;;      Locals:         6       0       0       0       0
  1569 ;;      Temps:          4       0       0       0       0
  1570 ;;      Totals:        14       0       0       0       0
  1571 ;;Total ram usage:       14 bytes
  1572 ;; Hardware stack levels used: 1
  1573 ;; This function calls:
  1574 ;;		Nothing
  1575 ;; This function is called by:
  1576 ;;		_map
  1577 ;; This function uses a non-reentrant model
  1578 ;;
  1579                           
  1580  0F46                     ___xxtofl:	
  1581                           ;psect for function ___xxtofl
  1582                           
  1583                           
  1584                           ;incstack = 0
  1585                           ; Regs used in ___xxtofl: [wreg+status,2+status,0]
  1586                           ;___xxtofl@sign stored from wreg
  1587  0F46  00F8               	movwf	___xxtofl@sign
  1588  0F47                     i1l2134:
  1589  0F47  0878               	movf	___xxtofl@sign,w
  1590  0F48  1903               	btfsc	3,2
  1591  0F49  2F4B               	goto	u290_21
  1592  0F4A  2F4C               	goto	u290_20
  1593  0F4B                     u290_21:
  1594  0F4B  2F60               	goto	i1l2140
  1595  0F4C                     u290_20:
  1596  0F4C                     i1l2136:
  1597  0F4C  1FF3               	btfss	___xxtofl@val+3,7
  1598  0F4D  2F4F               	goto	u291_21
  1599  0F4E  2F50               	goto	u291_20
  1600  0F4F                     u291_21:
  1601  0F4F  2F60               	goto	i1l2140
  1602  0F50                     u291_20:
  1603  0F50                     i1l2138:
  1604  0F50  0970               	comf	___xxtofl@val,w
  1605  0F51  00FA               	movwf	___xxtofl@arg
  1606  0F52  0971               	comf	___xxtofl@val+1,w
  1607  0F53  00FB               	movwf	___xxtofl@arg+1
  1608  0F54  0972               	comf	___xxtofl@val+2,w
  1609  0F55  00FC               	movwf	___xxtofl@arg+2
  1610  0F56  0973               	comf	___xxtofl@val+3,w
  1611  0F57  00FD               	movwf	___xxtofl@arg+3
  1612  0F58  0AFA               	incf	___xxtofl@arg,f
  1613  0F59  1903               	skipnz
  1614  0F5A  0AFB               	incf	___xxtofl@arg+1,f
  1615  0F5B  1903               	skipnz
  1616  0F5C  0AFC               	incf	___xxtofl@arg+2,f
  1617  0F5D  1903               	skipnz
  1618  0F5E  0AFD               	incf	___xxtofl@arg+3,f
  1619  0F5F  2F68               	goto	i1l715
  1620  0F60                     i1l2140:
  1621  0F60  0873               	movf	___xxtofl@val+3,w
  1622  0F61  00FD               	movwf	___xxtofl@arg+3
  1623  0F62  0872               	movf	___xxtofl@val+2,w
  1624  0F63  00FC               	movwf	___xxtofl@arg+2
  1625  0F64  0871               	movf	___xxtofl@val+1,w
  1626  0F65  00FB               	movwf	___xxtofl@arg+1
  1627  0F66  0870               	movf	___xxtofl@val,w
  1628  0F67  00FA               	movwf	___xxtofl@arg
  1629  0F68                     i1l715:
  1630  0F68  0873               	movf	___xxtofl@val+3,w
  1631  0F69  0472               	iorwf	___xxtofl@val+2,w
  1632  0F6A  0471               	iorwf	___xxtofl@val+1,w
  1633  0F6B  0470               	iorwf	___xxtofl@val,w
  1634  0F6C  1D03               	skipz
  1635  0F6D  2F6F               	goto	u292_21
  1636  0F6E  2F70               	goto	u292_20
  1637  0F6F                     u292_21:
  1638  0F6F  2F79               	goto	i1l2146
  1639  0F70                     u292_20:
  1640  0F70                     i1l2142:
  1641  0F70  3000               	movlw	0
  1642  0F71  00F3               	movwf	?___xxtofl+3
  1643  0F72  3000               	movlw	0
  1644  0F73  00F2               	movwf	?___xxtofl+2
  1645  0F74  3000               	movlw	0
  1646  0F75  00F1               	movwf	?___xxtofl+1
  1647  0F76  3000               	movlw	0
  1648  0F77  00F0               	movwf	?___xxtofl
  1649  0F78  2FFF               	goto	i1l717
  1650  0F79                     i1l2146:
  1651  0F79  3096               	movlw	150
  1652  0F7A  00F4               	movwf	??___xxtofl
  1653  0F7B  0874               	movf	??___xxtofl,w
  1654  0F7C  00F9               	movwf	___xxtofl@exp
  1655  0F7D  2F8B               	goto	i1l2150
  1656  0F7E                     i1l2148:
  1657  0F7E  3001               	movlw	1
  1658  0F7F  00F4               	movwf	??___xxtofl
  1659  0F80  0874               	movf	??___xxtofl,w
  1660  0F81  07F9               	addwf	___xxtofl@exp,f
  1661  0F82  3001               	movlw	1
  1662  0F83                     u293_25:
  1663  0F83  1003               	clrc
  1664  0F84  0CFD               	rrf	___xxtofl@arg+3,f
  1665  0F85  0CFC               	rrf	___xxtofl@arg+2,f
  1666  0F86  0CFB               	rrf	___xxtofl@arg+1,f
  1667  0F87  0CFA               	rrf	___xxtofl@arg,f
  1668  0F88  3EFF               	addlw	-1
  1669  0F89  1D03               	skipz
  1670  0F8A  2F83               	goto	u293_25
  1671  0F8B                     i1l2150:
  1672  0F8B  30FE               	movlw	254
  1673  0F8C  057D               	andwf	___xxtofl@arg+3,w
  1674  0F8D  1D03               	btfss	3,2
  1675  0F8E  2F90               	goto	u294_21
  1676  0F8F  2F91               	goto	u294_20
  1677  0F90                     u294_21:
  1678  0F90  2F7E               	goto	i1l2148
  1679  0F91                     u294_20:
  1680  0F91  2FAD               	goto	i1l721
  1681  0F92                     i1l2152:
  1682  0F92  3001               	movlw	1
  1683  0F93  00F4               	movwf	??___xxtofl
  1684  0F94  0874               	movf	??___xxtofl,w
  1685  0F95  07F9               	addwf	___xxtofl@exp,f
  1686  0F96                     i1l2154:
  1687  0F96  3001               	movlw	1
  1688  0F97  07FA               	addwf	___xxtofl@arg,f
  1689  0F98  3000               	movlw	0
  1690  0F99  1803               	skipnc
  1691  0F9A  3001               	movlw	1
  1692  0F9B  07FB               	addwf	___xxtofl@arg+1,f
  1693  0F9C  3000               	movlw	0
  1694  0F9D  1803               	skipnc
  1695  0F9E  3001               	movlw	1
  1696  0F9F  07FC               	addwf	___xxtofl@arg+2,f
  1697  0FA0  3000               	movlw	0
  1698  0FA1  1803               	skipnc
  1699  0FA2  3001               	movlw	1
  1700  0FA3  07FD               	addwf	___xxtofl@arg+3,f
  1701  0FA4                     i1l2156:
  1702  0FA4  3001               	movlw	1
  1703  0FA5                     u295_25:
  1704  0FA5  1003               	clrc
  1705  0FA6  0CFD               	rrf	___xxtofl@arg+3,f
  1706  0FA7  0CFC               	rrf	___xxtofl@arg+2,f
  1707  0FA8  0CFB               	rrf	___xxtofl@arg+1,f
  1708  0FA9  0CFA               	rrf	___xxtofl@arg,f
  1709  0FAA  3EFF               	addlw	-1
  1710  0FAB  1D03               	skipz
  1711  0FAC  2FA5               	goto	u295_25
  1712  0FAD                     i1l721:
  1713  0FAD  30FF               	movlw	255
  1714  0FAE  057D               	andwf	___xxtofl@arg+3,w
  1715  0FAF  1D03               	btfss	3,2
  1716  0FB0  2FB2               	goto	u296_21
  1717  0FB1  2FB3               	goto	u296_20
  1718  0FB2                     u296_21:
  1719  0FB2  2F92               	goto	i1l2152
  1720  0FB3                     u296_20:
  1721  0FB3  2FBF               	goto	i1l2160
  1722  0FB4                     i1l2158:
  1723  0FB4  3001               	movlw	1
  1724  0FB5  02F9               	subwf	___xxtofl@exp,f
  1725  0FB6  3001               	movlw	1
  1726  0FB7  00F4               	movwf	??___xxtofl
  1727  0FB8                     u297_25:
  1728  0FB8  1003               	clrc
  1729  0FB9  0DFA               	rlf	___xxtofl@arg,f
  1730  0FBA  0DFB               	rlf	___xxtofl@arg+1,f
  1731  0FBB  0DFC               	rlf	___xxtofl@arg+2,f
  1732  0FBC  0DFD               	rlf	___xxtofl@arg+3,f
  1733  0FBD  0BF4               	decfsz	??___xxtofl,f
  1734  0FBE  2FB8               	goto	u297_25
  1735  0FBF                     i1l2160:
  1736  0FBF  1BFC               	btfsc	___xxtofl@arg+2,7
  1737  0FC0  2FC2               	goto	u298_21
  1738  0FC1  2FC3               	goto	u298_20
  1739  0FC2                     u298_21:
  1740  0FC2  2FC9               	goto	i1l728
  1741  0FC3                     u298_20:
  1742  0FC3                     i1l2162:
  1743  0FC3  3002               	movlw	2
  1744  0FC4  0279               	subwf	___xxtofl@exp,w
  1745  0FC5  1803               	skipnc
  1746  0FC6  2FC8               	goto	u299_21
  1747  0FC7  2FC9               	goto	u299_20
  1748  0FC8                     u299_21:
  1749  0FC8  2FB4               	goto	i1l2158
  1750  0FC9                     u299_20:
  1751  0FC9                     i1l728:
  1752  0FC9  1879               	btfsc	___xxtofl@exp,0
  1753  0FCA  2FCC               	goto	u300_21
  1754  0FCB  2FCD               	goto	u300_20
  1755  0FCC                     u300_21:
  1756  0FCC  2FD5               	goto	i1l729
  1757  0FCD                     u300_20:
  1758  0FCD                     i1l2164:
  1759  0FCD  30FF               	movlw	255
  1760  0FCE  05FA               	andwf	___xxtofl@arg,f
  1761  0FCF  30FF               	movlw	255
  1762  0FD0  05FB               	andwf	___xxtofl@arg+1,f
  1763  0FD1  307F               	movlw	127
  1764  0FD2  05FC               	andwf	___xxtofl@arg+2,f
  1765  0FD3  30FF               	movlw	255
  1766  0FD4  05FD               	andwf	___xxtofl@arg+3,f
  1767  0FD5                     i1l729:
  1768  0FD5  1003               	clrc
  1769  0FD6  0CF9               	rrf	___xxtofl@exp,f
  1770  0FD7                     i1l2166:
  1771  0FD7  0879               	movf	___xxtofl@exp,w
  1772  0FD8  00F4               	movwf	??___xxtofl
  1773  0FD9  01F5               	clrf	??___xxtofl+1
  1774  0FDA  01F6               	clrf	??___xxtofl+2
  1775  0FDB  01F7               	clrf	??___xxtofl+3
  1776  0FDC  3018               	movlw	24
  1777  0FDD                     u301_25:
  1778  0FDD  1003               	clrc
  1779  0FDE  0DF4               	rlf	??___xxtofl,f
  1780  0FDF  0DF5               	rlf	??___xxtofl+1,f
  1781  0FE0  0DF6               	rlf	??___xxtofl+2,f
  1782  0FE1  0DF7               	rlf	??___xxtofl+3,f
  1783  0FE2                     u301_20:
  1784  0FE2  3EFF               	addlw	-1
  1785  0FE3  1D03               	skipz
  1786  0FE4  2FDD               	goto	u301_25
  1787  0FE5  0874               	movf	??___xxtofl,w
  1788  0FE6  04FA               	iorwf	___xxtofl@arg,f
  1789  0FE7  0875               	movf	??___xxtofl+1,w
  1790  0FE8  04FB               	iorwf	___xxtofl@arg+1,f
  1791  0FE9  0876               	movf	??___xxtofl+2,w
  1792  0FEA  04FC               	iorwf	___xxtofl@arg+2,f
  1793  0FEB  0877               	movf	??___xxtofl+3,w
  1794  0FEC  04FD               	iorwf	___xxtofl@arg+3,f
  1795  0FED                     i1l2168:
  1796  0FED  0878               	movf	___xxtofl@sign,w
  1797  0FEE  1903               	btfsc	3,2
  1798  0FEF  2FF1               	goto	u302_21
  1799  0FF0  2FF2               	goto	u302_20
  1800  0FF1                     u302_21:
  1801  0FF1  2FF7               	goto	i1l2174
  1802  0FF2                     u302_20:
  1803  0FF2                     i1l2170:
  1804  0FF2  1FF3               	btfss	___xxtofl@val+3,7
  1805  0FF3  2FF5               	goto	u303_21
  1806  0FF4  2FF6               	goto	u303_20
  1807  0FF5                     u303_21:
  1808  0FF5  2FF7               	goto	i1l2174
  1809  0FF6                     u303_20:
  1810  0FF6                     i1l2172:
  1811  0FF6  17FD               	bsf	___xxtofl@arg+3,7
  1812  0FF7                     i1l2174:
  1813  0FF7  087D               	movf	___xxtofl@arg+3,w
  1814  0FF8  00F3               	movwf	?___xxtofl+3
  1815  0FF9  087C               	movf	___xxtofl@arg+2,w
  1816  0FFA  00F2               	movwf	?___xxtofl+2
  1817  0FFB  087B               	movf	___xxtofl@arg+1,w
  1818  0FFC  00F1               	movwf	?___xxtofl+1
  1819  0FFD  087A               	movf	___xxtofl@arg,w
  1820  0FFE  00F0               	movwf	?___xxtofl
  1821  0FFF                     i1l717:
  1822  0FFF  0008               	return
  1823  1000                     __end_of___xxtofl:
  1824                           
  1825                           	psect	text7
  1826  0D53                     __ptext7:	
  1827 ;; *************** function ___fltol *****************
  1828 ;; Defined at:
  1829 ;;		line 43 in file "C:\Program Files\Microchip\xc8\v2.35\pic\sources\c90\common\fltol.c"
  1830 ;; Parameters:    Size  Location     Type
  1831 ;;  f1              4   72[BANK0 ] unsigned char 
  1832 ;; Auto vars:     Size  Location     Type
  1833 ;;  exp1            1   77[BANK0 ] unsigned char 
  1834 ;;  sign1           1   76[BANK0 ] unsigned char 
  1835 ;; Return value:  Size  Location     Type
  1836 ;;                  4   72[BANK0 ] long 
  1837 ;; Registers used:
  1838 ;;		wreg, status,2, status,0
  1839 ;; Tracked objects:
  1840 ;;		On entry : 0/0
  1841 ;;		On exit  : 0/0
  1842 ;;		Unchanged: 0/0
  1843 ;; Data sizes:     COMMON   BANK0   BANK1   BANK3   BANK2
  1844 ;;      Params:         0       4       0       0       0
  1845 ;;      Locals:         0       2       0       0       0
  1846 ;;      Temps:          0       0       5       0       0
  1847 ;;      Totals:         0       6       5       0       0
  1848 ;;Total ram usage:       11 bytes
  1849 ;; Hardware stack levels used: 1
  1850 ;; This function calls:
  1851 ;;		Nothing
  1852 ;; This function is called by:
  1853 ;;		_map
  1854 ;; This function uses a non-reentrant model
  1855 ;;
  1856                           
  1857  0D53                     ___fltol:	
  1858                           ;psect for function ___fltol
  1859                           
  1860  0D53                     i1l1622:	
  1861                           ;incstack = 0
  1862                           ; Regs used in ___fltol: [wreg+status,2+status,0]
  1863                           
  1864  0D53  1003               	clrc
  1865  0D54  1283               	bcf	3,5	;RP0=0, select bank0
  1866  0D55  1303               	bcf	3,6	;RP1=0, select bank0
  1867  0D56  0D6A               	rlf	___fltol@f1+2,w
  1868  0D57  0D6B               	rlf	___fltol@f1+3,w
  1869  0D58  1683               	bsf	3,5	;RP0=1, select bank1
  1870  0D59  1303               	bcf	3,6	;RP1=0, select bank1
  1871  0D5A  00A0               	movwf	??___fltol^(0+128)
  1872  0D5B  0820               	movf	??___fltol^(0+128),w
  1873  0D5C  1283               	bcf	3,5	;RP0=0, select bank0
  1874  0D5D  1303               	bcf	3,6	;RP1=0, select bank0
  1875  0D5E  00ED               	movwf	___fltol@exp1
  1876  0D5F  086D               	movf	___fltol@exp1,w
  1877  0D60  1D03               	btfss	3,2
  1878  0D61  2D63               	goto	u168_21
  1879  0D62  2D64               	goto	u168_20
  1880  0D63                     u168_21:
  1881  0D63  2D6D               	goto	i1l1628
  1882  0D64                     u168_20:
  1883  0D64                     i1l1624:
  1884  0D64  3000               	movlw	0
  1885  0D65  00EB               	movwf	?___fltol+3
  1886  0D66  3000               	movlw	0
  1887  0D67  00EA               	movwf	?___fltol+2
  1888  0D68  3000               	movlw	0
  1889  0D69  00E9               	movwf	?___fltol+1
  1890  0D6A  3000               	movlw	0
  1891  0D6B  00E8               	movwf	?___fltol
  1892  0D6C  2DEE               	goto	i1l468
  1893  0D6D                     i1l1628:
  1894  0D6D  0868               	movf	___fltol@f1,w
  1895  0D6E  1683               	bsf	3,5	;RP0=1, select bank1
  1896  0D6F  1303               	bcf	3,6	;RP1=0, select bank1
  1897  0D70  00A0               	movwf	??___fltol^(0+128)
  1898  0D71  1283               	bcf	3,5	;RP0=0, select bank0
  1899  0D72  1303               	bcf	3,6	;RP1=0, select bank0
  1900  0D73  0869               	movf	___fltol@f1+1,w
  1901  0D74  1683               	bsf	3,5	;RP0=1, select bank1
  1902  0D75  1303               	bcf	3,6	;RP1=0, select bank1
  1903  0D76  00A1               	movwf	(??___fltol^(0+128)+1)
  1904  0D77  1283               	bcf	3,5	;RP0=0, select bank0
  1905  0D78  1303               	bcf	3,6	;RP1=0, select bank0
  1906  0D79  086A               	movf	___fltol@f1+2,w
  1907  0D7A  1683               	bsf	3,5	;RP0=1, select bank1
  1908  0D7B  1303               	bcf	3,6	;RP1=0, select bank1
  1909  0D7C  00A2               	movwf	(??___fltol^(0+128)+2)
  1910  0D7D  1283               	bcf	3,5	;RP0=0, select bank0
  1911  0D7E  1303               	bcf	3,6	;RP1=0, select bank0
  1912  0D7F  086B               	movf	___fltol@f1+3,w
  1913  0D80  1683               	bsf	3,5	;RP0=1, select bank1
  1914  0D81  1303               	bcf	3,6	;RP1=0, select bank1
  1915  0D82  00A3               	movwf	(??___fltol^(0+128)+3)
  1916  0D83  301F               	movlw	31
  1917  0D84                     u169_25:
  1918  0D84  1003               	clrc
  1919  0D85  0CA3               	rrf	(??___fltol^(0+128)+3),f
  1920  0D86  0CA2               	rrf	(??___fltol^(0+128)+2),f
  1921  0D87  0CA1               	rrf	(??___fltol^(0+128)+1),f
  1922  0D88  0CA0               	rrf	??___fltol^(0+128),f
  1923  0D89                     u169_20:
  1924  0D89  3EFF               	addlw	-1
  1925  0D8A  1D03               	skipz
  1926  0D8B  2D84               	goto	u169_25
  1927  0D8C  0820               	movf	??___fltol^(0+128),w
  1928  0D8D  00A4               	movwf	(??___fltol+4)^(0+128)
  1929  0D8E  0824               	movf	(??___fltol+4)^(0+128),w
  1930  0D8F  1283               	bcf	3,5	;RP0=0, select bank0
  1931  0D90  1303               	bcf	3,6	;RP1=0, select bank0
  1932  0D91  00EC               	movwf	___fltol@sign1
  1933  0D92                     i1l1630:
  1934  0D92  17EA               	bsf	___fltol@f1+2,7
  1935  0D93                     i1l1632:
  1936  0D93  30FF               	movlw	255
  1937  0D94  05E8               	andwf	___fltol@f1,f
  1938  0D95  30FF               	movlw	255
  1939  0D96  05E9               	andwf	___fltol@f1+1,f
  1940  0D97  30FF               	movlw	255
  1941  0D98  05EA               	andwf	___fltol@f1+2,f
  1942  0D99  3000               	movlw	0
  1943  0D9A  05EB               	andwf	___fltol@f1+3,f
  1944  0D9B                     i1l1634:
  1945  0D9B  3096               	movlw	150
  1946  0D9C  02ED               	subwf	___fltol@exp1,f
  1947  0D9D                     i1l1636:
  1948  0D9D  1FED               	btfss	___fltol@exp1,7
  1949  0D9E  2DA0               	goto	u170_21
  1950  0D9F  2DA1               	goto	u170_20
  1951  0DA0                     u170_21:
  1952  0DA0  2DBF               	goto	i1l1646
  1953  0DA1                     u170_20:
  1954  0DA1                     i1l1638:
  1955  0DA1  086D               	movf	___fltol@exp1,w
  1956  0DA2  3A80               	xorlw	128
  1957  0DA3  3E97               	addlw	151
  1958  0DA4  1803               	skipnc
  1959  0DA5  2DA7               	goto	u171_21
  1960  0DA6  2DA8               	goto	u171_20
  1961  0DA7                     u171_21:
  1962  0DA7  2DA9               	goto	i1l1644
  1963  0DA8                     u171_20:
  1964  0DA8  2D64               	goto	i1l1624
  1965  0DA9                     i1l1644:
  1966  0DA9  3001               	movlw	1
  1967  0DAA                     u172_25:
  1968  0DAA  1003               	clrc
  1969  0DAB  0CEB               	rrf	___fltol@f1+3,f
  1970  0DAC  0CEA               	rrf	___fltol@f1+2,f
  1971  0DAD  0CE9               	rrf	___fltol@f1+1,f
  1972  0DAE  0CE8               	rrf	___fltol@f1,f
  1973  0DAF  3EFF               	addlw	-1
  1974  0DB0  1D03               	skipz
  1975  0DB1  2DAA               	goto	u172_25
  1976  0DB2  3001               	movlw	1
  1977  0DB3  1683               	bsf	3,5	;RP0=1, select bank1
  1978  0DB4  1303               	bcf	3,6	;RP1=0, select bank1
  1979  0DB5  00A0               	movwf	??___fltol^(0+128)
  1980  0DB6  0820               	movf	??___fltol^(0+128),w
  1981  0DB7  1283               	bcf	3,5	;RP0=0, select bank0
  1982  0DB8  1303               	bcf	3,6	;RP1=0, select bank0
  1983  0DB9  07ED               	addwf	___fltol@exp1,f
  1984  0DBA  1D03               	btfss	3,2
  1985  0DBB  2DBD               	goto	u173_21
  1986  0DBC  2DBE               	goto	u173_20
  1987  0DBD                     u173_21:
  1988  0DBD  2DA9               	goto	i1l1644
  1989  0DBE                     u173_20:
  1990  0DBE  2DDE               	goto	i1l1654
  1991  0DBF                     i1l1646:
  1992  0DBF  3020               	movlw	32
  1993  0DC0  026D               	subwf	___fltol@exp1,w
  1994  0DC1  1C03               	skipc
  1995  0DC2  2DC4               	goto	u174_21
  1996  0DC3  2DC5               	goto	u174_20
  1997  0DC4                     u174_21:
  1998  0DC4  2DD9               	goto	i1l475
  1999  0DC5                     u174_20:
  2000  0DC5  2D64               	goto	i1l1624
  2001  0DC6                     i1l1652:
  2002  0DC6  3001               	movlw	1
  2003  0DC7  1683               	bsf	3,5	;RP0=1, select bank1
  2004  0DC8  1303               	bcf	3,6	;RP1=0, select bank1
  2005  0DC9  00A0               	movwf	??___fltol^(0+128)
  2006  0DCA                     u175_25:
  2007  0DCA  1003               	clrc
  2008  0DCB  1283               	bcf	3,5	;RP0=0, select bank0
  2009  0DCC  1303               	bcf	3,6	;RP1=0, select bank0
  2010  0DCD  0DE8               	rlf	___fltol@f1,f
  2011  0DCE  0DE9               	rlf	___fltol@f1+1,f
  2012  0DCF  0DEA               	rlf	___fltol@f1+2,f
  2013  0DD0  0DEB               	rlf	___fltol@f1+3,f
  2014  0DD1  1683               	bsf	3,5	;RP0=1, select bank1
  2015  0DD2  1303               	bcf	3,6	;RP1=0, select bank1
  2016  0DD3  0BA0               	decfsz	??___fltol^(0+128),f
  2017  0DD4  2DCA               	goto	u175_25
  2018  0DD5  3001               	movlw	1
  2019  0DD6  1283               	bcf	3,5	;RP0=0, select bank0
  2020  0DD7  1303               	bcf	3,6	;RP1=0, select bank0
  2021  0DD8  02ED               	subwf	___fltol@exp1,f
  2022  0DD9                     i1l475:
  2023  0DD9  086D               	movf	___fltol@exp1,w
  2024  0DDA  1D03               	btfss	3,2
  2025  0DDB  2DDD               	goto	u176_21
  2026  0DDC  2DDE               	goto	u176_20
  2027  0DDD                     u176_21:
  2028  0DDD  2DC6               	goto	i1l1652
  2029  0DDE                     u176_20:
  2030  0DDE                     i1l1654:
  2031  0DDE  086C               	movf	___fltol@sign1,w
  2032  0DDF  1903               	btfsc	3,2
  2033  0DE0  2DE2               	goto	u177_21
  2034  0DE1  2DE3               	goto	u177_20
  2035  0DE2                     u177_21:
  2036  0DE2  2DEE               	goto	i1l478
  2037  0DE3                     u177_20:
  2038  0DE3                     i1l1656:
  2039  0DE3  09E8               	comf	___fltol@f1,f
  2040  0DE4  09E9               	comf	___fltol@f1+1,f
  2041  0DE5  09EA               	comf	___fltol@f1+2,f
  2042  0DE6  09EB               	comf	___fltol@f1+3,f
  2043  0DE7  0AE8               	incf	___fltol@f1,f
  2044  0DE8  1903               	skipnz
  2045  0DE9  0AE9               	incf	___fltol@f1+1,f
  2046  0DEA  1903               	skipnz
  2047  0DEB  0AEA               	incf	___fltol@f1+2,f
  2048  0DEC  1903               	skipnz
  2049  0DED  0AEB               	incf	___fltol@f1+3,f
  2050  0DEE                     i1l478:
  2051  0DEE                     i1l468:
  2052  0DEE  0008               	return
  2053  0DEF                     __end_of___fltol:
  2054                           
  2055                           	psect	text8
  2056  0026                     __ptext8:	
  2057 ;; *************** function ___flmul *****************
  2058 ;; Defined at:
  2059 ;;		line 8 in file "C:\Program Files\Microchip\xc8\v2.35\pic\sources\c90\common\sprcmul.c"
  2060 ;; Parameters:    Size  Location     Type
  2061 ;;  b               4   26[BANK0 ] long 
  2062 ;;  a               4   30[BANK0 ] long 
  2063 ;; Auto vars:     Size  Location     Type
  2064 ;;  prod            4   46[BANK0 ] struct .
  2065 ;;  grs             4   40[BANK0 ] unsigned long 
  2066 ;;  temp            2   50[BANK0 ] struct .
  2067 ;;  bexp            1   45[BANK0 ] unsigned char 
  2068 ;;  aexp            1   44[BANK0 ] unsigned char 
  2069 ;;  sign            1   39[BANK0 ] unsigned char 
  2070 ;; Return value:  Size  Location     Type
  2071 ;;                  4   26[BANK0 ] unsigned char 
  2072 ;; Registers used:
  2073 ;;		wreg, status,2, status,0, btemp+1, pclath, cstack
  2074 ;; Tracked objects:
  2075 ;;		On entry : 0/0
  2076 ;;		On exit  : 0/0
  2077 ;;		Unchanged: 0/0
  2078 ;; Data sizes:     COMMON   BANK0   BANK1   BANK3   BANK2
  2079 ;;      Params:         0       8       0       0       0
  2080 ;;      Locals:         0      13       0       0       0
  2081 ;;      Temps:          0       5       0       0       0
  2082 ;;      Totals:         0      26       0       0       0
  2083 ;;Total ram usage:       26 bytes
  2084 ;; Hardware stack levels used: 1
  2085 ;; Hardware stack levels required when called: 1
  2086 ;; This function calls:
  2087 ;;		__Umul8_16
  2088 ;; This function is called by:
  2089 ;;		_map
  2090 ;; This function uses a non-reentrant model
  2091 ;;
  2092                           
  2093  0026                     ___flmul:	
  2094                           ;psect for function ___flmul
  2095                           
  2096  0026                     i1l1994:	
  2097                           ;incstack = 0
  2098                           ; Regs used in ___flmul: [wreg+status,2+status,0+btemp+1+pclath+cstack]
  2099                           
  2100  0026  1283               	bcf	3,5	;RP0=0, select bank0
  2101  0027  1303               	bcf	3,6	;RP1=0, select bank0
  2102  0028  083D               	movf	___flmul@b+3,w
  2103  0029  3980               	andlw	128
  2104  002A  00C2               	movwf	??___flmul
  2105  002B  0842               	movf	??___flmul,w
  2106  002C  00C7               	movwf	___flmul@sign
  2107  002D                     i1l1996:
  2108  002D  083D               	movf	___flmul@b+3,w
  2109  002E  00C2               	movwf	??___flmul
  2110  002F  0742               	addwf	??___flmul,w
  2111  0030  00C3               	movwf	??___flmul+1
  2112  0031  0843               	movf	??___flmul+1,w
  2113  0032  00CD               	movwf	___flmul@bexp
  2114  0033                     i1l1998:
  2115  0033  1FBC               	btfss	___flmul@b+2,7
  2116  0034  2836               	goto	u253_21
  2117  0035  2837               	goto	u253_20
  2118  0036                     u253_21:
  2119  0036  2838               	goto	i1l2002
  2120  0037                     u253_20:
  2121  0037                     i1l2000:
  2122  0037  144D               	bsf	___flmul@bexp,0
  2123  0038                     i1l2002:
  2124  0038  084D               	movf	___flmul@bexp,w
  2125  0039  1903               	btfsc	3,2
  2126  003A  283C               	goto	u254_21
  2127  003B  283D               	goto	u254_20
  2128  003C                     u254_21:
  2129  003C  284C               	goto	i1l2010
  2130  003D                     u254_20:
  2131  003D                     i1l2004:
  2132  003D  0A4D               	incf	___flmul@bexp,w
  2133  003E  1D03               	btfss	3,2
  2134  003F  2841               	goto	u255_21
  2135  0040  2842               	goto	u255_20
  2136  0041                     u255_21:
  2137  0041  284A               	goto	i1l2008
  2138  0042                     u255_20:
  2139  0042                     i1l2006:
  2140  0042  3000               	movlw	0
  2141  0043  00BD               	movwf	___flmul@b+3
  2142  0044  3000               	movlw	0
  2143  0045  00BC               	movwf	___flmul@b+2
  2144  0046  3000               	movlw	0
  2145  0047  00BB               	movwf	___flmul@b+1
  2146  0048  3000               	movlw	0
  2147  0049  00BA               	movwf	___flmul@b
  2148  004A                     i1l2008:
  2149  004A  17BC               	bsf	___flmul@b+2,7
  2150  004B  2854               	goto	i1l2012
  2151  004C                     i1l2010:
  2152  004C  3000               	movlw	0
  2153  004D  00BD               	movwf	___flmul@b+3
  2154  004E  3000               	movlw	0
  2155  004F  00BC               	movwf	___flmul@b+2
  2156  0050  3000               	movlw	0
  2157  0051  00BB               	movwf	___flmul@b+1
  2158  0052  3000               	movlw	0
  2159  0053  00BA               	movwf	___flmul@b
  2160  0054                     i1l2012:
  2161  0054  0841               	movf	___flmul@a+3,w
  2162  0055  3980               	andlw	128
  2163  0056  00C2               	movwf	??___flmul
  2164  0057  0842               	movf	??___flmul,w
  2165  0058  06C7               	xorwf	___flmul@sign,f
  2166  0059                     i1l2014:
  2167  0059  0841               	movf	___flmul@a+3,w
  2168  005A  00C2               	movwf	??___flmul
  2169  005B  0742               	addwf	??___flmul,w
  2170  005C  00C3               	movwf	??___flmul+1
  2171  005D  0843               	movf	??___flmul+1,w
  2172  005E  00CC               	movwf	___flmul@aexp
  2173  005F                     i1l2016:
  2174  005F  1FC0               	btfss	___flmul@a+2,7
  2175  0060  2862               	goto	u256_21
  2176  0061  2863               	goto	u256_20
  2177  0062                     u256_21:
  2178  0062  2864               	goto	i1l2020
  2179  0063                     u256_20:
  2180  0063                     i1l2018:
  2181  0063  144C               	bsf	___flmul@aexp,0
  2182  0064                     i1l2020:
  2183  0064  084C               	movf	___flmul@aexp,w
  2184  0065  1903               	btfsc	3,2
  2185  0066  2868               	goto	u257_21
  2186  0067  2869               	goto	u257_20
  2187  0068                     u257_21:
  2188  0068  2878               	goto	i1l2028
  2189  0069                     u257_20:
  2190  0069                     i1l2022:
  2191  0069  0A4C               	incf	___flmul@aexp,w
  2192  006A  1D03               	btfss	3,2
  2193  006B  286D               	goto	u258_21
  2194  006C  286E               	goto	u258_20
  2195  006D                     u258_21:
  2196  006D  2876               	goto	i1l2026
  2197  006E                     u258_20:
  2198  006E                     i1l2024:
  2199  006E  3000               	movlw	0
  2200  006F  00C1               	movwf	___flmul@a+3
  2201  0070  3000               	movlw	0
  2202  0071  00C0               	movwf	___flmul@a+2
  2203  0072  3000               	movlw	0
  2204  0073  00BF               	movwf	___flmul@a+1
  2205  0074  3000               	movlw	0
  2206  0075  00BE               	movwf	___flmul@a
  2207  0076                     i1l2026:
  2208  0076  17C0               	bsf	___flmul@a+2,7
  2209  0077  2880               	goto	i1l2030
  2210  0078                     i1l2028:
  2211  0078  3000               	movlw	0
  2212  0079  00C1               	movwf	___flmul@a+3
  2213  007A  3000               	movlw	0
  2214  007B  00C0               	movwf	___flmul@a+2
  2215  007C  3000               	movlw	0
  2216  007D  00BF               	movwf	___flmul@a+1
  2217  007E  3000               	movlw	0
  2218  007F  00BE               	movwf	___flmul@a
  2219  0080                     i1l2030:
  2220  0080  084C               	movf	___flmul@aexp,w
  2221  0081  1903               	btfsc	3,2
  2222  0082  2884               	goto	u259_21
  2223  0083  2885               	goto	u259_20
  2224  0084                     u259_21:
  2225  0084  288A               	goto	i1l2034
  2226  0085                     u259_20:
  2227  0085                     i1l2032:
  2228  0085  084D               	movf	___flmul@bexp,w
  2229  0086  1D03               	btfss	3,2
  2230  0087  2889               	goto	u260_21
  2231  0088  288A               	goto	u260_20
  2232  0089                     u260_21:
  2233  0089  2893               	goto	i1l2038
  2234  008A                     u260_20:
  2235  008A                     i1l2034:
  2236  008A  3000               	movlw	0
  2237  008B  00BD               	movwf	?___flmul+3
  2238  008C  3000               	movlw	0
  2239  008D  00BC               	movwf	?___flmul+2
  2240  008E  3000               	movlw	0
  2241  008F  00BB               	movwf	?___flmul+1
  2242  0090  3000               	movlw	0
  2243  0091  00BA               	movwf	?___flmul
  2244  0092  2B86               	goto	i1l671
  2245  0093                     i1l2038:
  2246  0093  083A               	movf	___flmul@b,w
  2247  0094  00C2               	movwf	??___flmul
  2248  0095  0842               	movf	??___flmul,w
  2249  0096  00F0               	movwf	__Umul8_16@multiplicand
  2250  0097  0840               	movf	___flmul@a+2,w
  2251  0098  120A  158A  24EB  120A  118A  	fcall	__Umul8_16
  2252  009D  0871               	movf	?__Umul8_16+1,w
  2253  009E  1283               	bcf	3,5	;RP0=0, select bank0
  2254  009F  1303               	bcf	3,6	;RP1=0, select bank0
  2255  00A0  00D3               	movwf	___flmul@temp+1
  2256  00A1  0870               	movf	?__Umul8_16,w
  2257  00A2  00D2               	movwf	___flmul@temp
  2258  00A3                     i1l2040:
  2259  00A3  0852               	movf	___flmul@temp,w
  2260  00A4  00C2               	movwf	??___flmul
  2261  00A5  01C3               	clrf	??___flmul+1
  2262  00A6  01C4               	clrf	??___flmul+2
  2263  00A7  01C5               	clrf	??___flmul+3
  2264  00A8  0845               	movf	??___flmul+3,w
  2265  00A9  00CB               	movwf	___flmul@grs+3
  2266  00AA  0844               	movf	??___flmul+2,w
  2267  00AB  00CA               	movwf	___flmul@grs+2
  2268  00AC  0843               	movf	??___flmul+1,w
  2269  00AD  00C9               	movwf	___flmul@grs+1
  2270  00AE  0842               	movf	??___flmul,w
  2271  00AF  00C8               	movwf	___flmul@grs
  2272  00B0                     i1l2042:
  2273  00B0  0853               	movf	___flmul@temp+1,w
  2274  00B1  00C2               	movwf	??___flmul
  2275  00B2  01C3               	clrf	??___flmul+1
  2276  00B3  01C4               	clrf	??___flmul+2
  2277  00B4  01C5               	clrf	??___flmul+3
  2278  00B5  0845               	movf	??___flmul+3,w
  2279  00B6  00D1               	movwf	___flmul@prod+3
  2280  00B7  0844               	movf	??___flmul+2,w
  2281  00B8  00D0               	movwf	___flmul@prod+2
  2282  00B9  0843               	movf	??___flmul+1,w
  2283  00BA  00CF               	movwf	___flmul@prod+1
  2284  00BB  0842               	movf	??___flmul,w
  2285  00BC  00CE               	movwf	___flmul@prod
  2286  00BD  083B               	movf	___flmul@b+1,w
  2287  00BE  00C2               	movwf	??___flmul
  2288  00BF  0842               	movf	??___flmul,w
  2289  00C0  00F0               	movwf	__Umul8_16@multiplicand
  2290  00C1  083F               	movf	___flmul@a+1,w
  2291  00C2  120A  158A  24EB  120A  118A  	fcall	__Umul8_16
  2292  00C7  0871               	movf	?__Umul8_16+1,w
  2293  00C8  1283               	bcf	3,5	;RP0=0, select bank0
  2294  00C9  1303               	bcf	3,6	;RP1=0, select bank0
  2295  00CA  00D3               	movwf	___flmul@temp+1
  2296  00CB  0870               	movf	?__Umul8_16,w
  2297  00CC  00D2               	movwf	___flmul@temp
  2298  00CD                     i1l2044:
  2299  00CD  0852               	movf	___flmul@temp,w
  2300  00CE  00C2               	movwf	??___flmul
  2301  00CF  01C3               	clrf	??___flmul+1
  2302  00D0  01C4               	clrf	??___flmul+2
  2303  00D1  01C5               	clrf	??___flmul+3
  2304  00D2  0842               	movf	??___flmul,w
  2305  00D3  07C8               	addwf	___flmul@grs,f
  2306  00D4  0843               	movf	??___flmul+1,w
  2307  00D5  1103               	clrz
  2308  00D6  1803               	skipnc
  2309  00D7  3E01               	addlw	1
  2310  00D8  1903               	skipnz
  2311  00D9  28DB               	goto	u261_21
  2312  00DA  07C9               	addwf	___flmul@grs+1,f
  2313  00DB                     u261_21:
  2314  00DB  0844               	movf	??___flmul+2,w
  2315  00DC  1103               	clrz
  2316  00DD  1803               	skipnc
  2317  00DE  3E01               	addlw	1
  2318  00DF  1903               	skipnz
  2319  00E0  28E2               	goto	u261_22
  2320  00E1  07CA               	addwf	___flmul@grs+2,f
  2321  00E2                     u261_22:
  2322  00E2  0845               	movf	??___flmul+3,w
  2323  00E3  1103               	clrz
  2324  00E4  1803               	skipnc
  2325  00E5  3E01               	addlw	1
  2326  00E6  1903               	skipnz
  2327  00E7  28E9               	goto	u261_23
  2328  00E8  07CB               	addwf	___flmul@grs+3,f
  2329  00E9                     u261_23:
  2330  00E9                     i1l2046:
  2331  00E9  0853               	movf	___flmul@temp+1,w
  2332  00EA  00C2               	movwf	??___flmul
  2333  00EB  01C3               	clrf	??___flmul+1
  2334  00EC  01C4               	clrf	??___flmul+2
  2335  00ED  01C5               	clrf	??___flmul+3
  2336  00EE  0842               	movf	??___flmul,w
  2337  00EF  07CE               	addwf	___flmul@prod,f
  2338  00F0  0843               	movf	??___flmul+1,w
  2339  00F1  1103               	clrz
  2340  00F2  1803               	skipnc
  2341  00F3  3E01               	addlw	1
  2342  00F4  1903               	skipnz
  2343  00F5  28F7               	goto	u262_21
  2344  00F6  07CF               	addwf	___flmul@prod+1,f
  2345  00F7                     u262_21:
  2346  00F7  0844               	movf	??___flmul+2,w
  2347  00F8  1103               	clrz
  2348  00F9  1803               	skipnc
  2349  00FA  3E01               	addlw	1
  2350  00FB  1903               	skipnz
  2351  00FC  28FE               	goto	u262_22
  2352  00FD  07D0               	addwf	___flmul@prod+2,f
  2353  00FE                     u262_22:
  2354  00FE  0845               	movf	??___flmul+3,w
  2355  00FF  1103               	clrz
  2356  0100  1803               	skipnc
  2357  0101  3E01               	addlw	1
  2358  0102  1903               	skipnz
  2359  0103  2905               	goto	u262_23
  2360  0104  07D1               	addwf	___flmul@prod+3,f
  2361  0105                     u262_23:
  2362  0105  083C               	movf	___flmul@b+2,w
  2363  0106  00C2               	movwf	??___flmul
  2364  0107  0842               	movf	??___flmul,w
  2365  0108  00F0               	movwf	__Umul8_16@multiplicand
  2366  0109  083E               	movf	___flmul@a,w
  2367  010A  120A  158A  24EB  120A  118A  	fcall	__Umul8_16
  2368  010F  0871               	movf	?__Umul8_16+1,w
  2369  0110  1283               	bcf	3,5	;RP0=0, select bank0
  2370  0111  1303               	bcf	3,6	;RP1=0, select bank0
  2371  0112  00D3               	movwf	___flmul@temp+1
  2372  0113  0870               	movf	?__Umul8_16,w
  2373  0114  00D2               	movwf	___flmul@temp
  2374  0115                     i1l2048:
  2375  0115  0852               	movf	___flmul@temp,w
  2376  0116  00C2               	movwf	??___flmul
  2377  0117  01C3               	clrf	??___flmul+1
  2378  0118  01C4               	clrf	??___flmul+2
  2379  0119  01C5               	clrf	??___flmul+3
  2380  011A  0842               	movf	??___flmul,w
  2381  011B  07C8               	addwf	___flmul@grs,f
  2382  011C  0843               	movf	??___flmul+1,w
  2383  011D  1103               	clrz
  2384  011E  1803               	skipnc
  2385  011F  3E01               	addlw	1
  2386  0120  1903               	skipnz
  2387  0121  2923               	goto	u263_21
  2388  0122  07C9               	addwf	___flmul@grs+1,f
  2389  0123                     u263_21:
  2390  0123  0844               	movf	??___flmul+2,w
  2391  0124  1103               	clrz
  2392  0125  1803               	skipnc
  2393  0126  3E01               	addlw	1
  2394  0127  1903               	skipnz
  2395  0128  292A               	goto	u263_22
  2396  0129  07CA               	addwf	___flmul@grs+2,f
  2397  012A                     u263_22:
  2398  012A  0845               	movf	??___flmul+3,w
  2399  012B  1103               	clrz
  2400  012C  1803               	skipnc
  2401  012D  3E01               	addlw	1
  2402  012E  1903               	skipnz
  2403  012F  2931               	goto	u263_23
  2404  0130  07CB               	addwf	___flmul@grs+3,f
  2405  0131                     u263_23:
  2406  0131                     i1l2050:
  2407  0131  0853               	movf	___flmul@temp+1,w
  2408  0132  00C2               	movwf	??___flmul
  2409  0133  01C3               	clrf	??___flmul+1
  2410  0134  01C4               	clrf	??___flmul+2
  2411  0135  01C5               	clrf	??___flmul+3
  2412  0136  0842               	movf	??___flmul,w
  2413  0137  07CE               	addwf	___flmul@prod,f
  2414  0138  0843               	movf	??___flmul+1,w
  2415  0139  1103               	clrz
  2416  013A  1803               	skipnc
  2417  013B  3E01               	addlw	1
  2418  013C  1903               	skipnz
  2419  013D  293F               	goto	u264_21
  2420  013E  07CF               	addwf	___flmul@prod+1,f
  2421  013F                     u264_21:
  2422  013F  0844               	movf	??___flmul+2,w
  2423  0140  1103               	clrz
  2424  0141  1803               	skipnc
  2425  0142  3E01               	addlw	1
  2426  0143  1903               	skipnz
  2427  0144  2946               	goto	u264_22
  2428  0145  07D0               	addwf	___flmul@prod+2,f
  2429  0146                     u264_22:
  2430  0146  0845               	movf	??___flmul+3,w
  2431  0147  1103               	clrz
  2432  0148  1803               	skipnc
  2433  0149  3E01               	addlw	1
  2434  014A  1903               	skipnz
  2435  014B  294D               	goto	u264_23
  2436  014C  07D1               	addwf	___flmul@prod+3,f
  2437  014D                     u264_23:
  2438  014D                     i1l2052:
  2439  014D  3008               	movlw	8
  2440  014E  00C2               	movwf	??___flmul
  2441  014F                     u265_25:
  2442  014F  1003               	clrc
  2443  0150  0DC8               	rlf	___flmul@grs,f
  2444  0151  0DC9               	rlf	___flmul@grs+1,f
  2445  0152  0DCA               	rlf	___flmul@grs+2,f
  2446  0153  0DCB               	rlf	___flmul@grs+3,f
  2447  0154  0BC2               	decfsz	??___flmul,f
  2448  0155  294F               	goto	u265_25
  2449  0156                     i1l2054:
  2450  0156  083B               	movf	___flmul@b+1,w
  2451  0157  00C2               	movwf	??___flmul
  2452  0158  0842               	movf	??___flmul,w
  2453  0159  00F0               	movwf	__Umul8_16@multiplicand
  2454  015A  083E               	movf	___flmul@a,w
  2455  015B  120A  158A  24EB  120A  118A  	fcall	__Umul8_16
  2456  0160  0871               	movf	?__Umul8_16+1,w
  2457  0161  1283               	bcf	3,5	;RP0=0, select bank0
  2458  0162  1303               	bcf	3,6	;RP1=0, select bank0
  2459  0163  00D3               	movwf	___flmul@temp+1
  2460  0164  0870               	movf	?__Umul8_16,w
  2461  0165  00D2               	movwf	___flmul@temp
  2462  0166                     i1l2056:
  2463  0166  0852               	movf	___flmul@temp,w
  2464  0167  00C2               	movwf	??___flmul
  2465  0168  0853               	movf	___flmul@temp+1,w
  2466  0169  00C3               	movwf	??___flmul+1
  2467  016A  01C4               	clrf	??___flmul+2
  2468  016B  01C5               	clrf	??___flmul+3
  2469  016C  0842               	movf	??___flmul,w
  2470  016D  07C8               	addwf	___flmul@grs,f
  2471  016E  0843               	movf	??___flmul+1,w
  2472  016F  1103               	clrz
  2473  0170  1803               	skipnc
  2474  0171  3E01               	addlw	1
  2475  0172  1903               	skipnz
  2476  0173  2975               	goto	u266_21
  2477  0174  07C9               	addwf	___flmul@grs+1,f
  2478  0175                     u266_21:
  2479  0175  0844               	movf	??___flmul+2,w
  2480  0176  1103               	clrz
  2481  0177  1803               	skipnc
  2482  0178  3E01               	addlw	1
  2483  0179  1903               	skipnz
  2484  017A  297C               	goto	u266_22
  2485  017B  07CA               	addwf	___flmul@grs+2,f
  2486  017C                     u266_22:
  2487  017C  0845               	movf	??___flmul+3,w
  2488  017D  1103               	clrz
  2489  017E  1803               	skipnc
  2490  017F  3E01               	addlw	1
  2491  0180  1903               	skipnz
  2492  0181  2983               	goto	u266_23
  2493  0182  07CB               	addwf	___flmul@grs+3,f
  2494  0183                     u266_23:
  2495  0183                     i1l2058:
  2496  0183  083A               	movf	___flmul@b,w
  2497  0184  00C2               	movwf	??___flmul
  2498  0185  0842               	movf	??___flmul,w
  2499  0186  00F0               	movwf	__Umul8_16@multiplicand
  2500  0187  083F               	movf	___flmul@a+1,w
  2501  0188  120A  158A  24EB  120A  118A  	fcall	__Umul8_16
  2502  018D  0871               	movf	?__Umul8_16+1,w
  2503  018E  1283               	bcf	3,5	;RP0=0, select bank0
  2504  018F  1303               	bcf	3,6	;RP1=0, select bank0
  2505  0190  00D3               	movwf	___flmul@temp+1
  2506  0191  0870               	movf	?__Umul8_16,w
  2507  0192  00D2               	movwf	___flmul@temp
  2508  0193                     i1l2060:
  2509  0193  0852               	movf	___flmul@temp,w
  2510  0194  00C2               	movwf	??___flmul
  2511  0195  0853               	movf	___flmul@temp+1,w
  2512  0196  00C3               	movwf	??___flmul+1
  2513  0197  01C4               	clrf	??___flmul+2
  2514  0198  01C5               	clrf	??___flmul+3
  2515  0199  0842               	movf	??___flmul,w
  2516  019A  07C8               	addwf	___flmul@grs,f
  2517  019B  0843               	movf	??___flmul+1,w
  2518  019C  1103               	clrz
  2519  019D  1803               	skipnc
  2520  019E  3E01               	addlw	1
  2521  019F  1903               	skipnz
  2522  01A0  29A2               	goto	u267_21
  2523  01A1  07C9               	addwf	___flmul@grs+1,f
  2524  01A2                     u267_21:
  2525  01A2  0844               	movf	??___flmul+2,w
  2526  01A3  1103               	clrz
  2527  01A4  1803               	skipnc
  2528  01A5  3E01               	addlw	1
  2529  01A6  1903               	skipnz
  2530  01A7  29A9               	goto	u267_22
  2531  01A8  07CA               	addwf	___flmul@grs+2,f
  2532  01A9                     u267_22:
  2533  01A9  0845               	movf	??___flmul+3,w
  2534  01AA  1103               	clrz
  2535  01AB  1803               	skipnc
  2536  01AC  3E01               	addlw	1
  2537  01AD  1903               	skipnz
  2538  01AE  29B0               	goto	u267_23
  2539  01AF  07CB               	addwf	___flmul@grs+3,f
  2540  01B0                     u267_23:
  2541  01B0                     i1l2062:
  2542  01B0  3008               	movlw	8
  2543  01B1  00C2               	movwf	??___flmul
  2544  01B2                     u268_25:
  2545  01B2  1003               	clrc
  2546  01B3  0DC8               	rlf	___flmul@grs,f
  2547  01B4  0DC9               	rlf	___flmul@grs+1,f
  2548  01B5  0DCA               	rlf	___flmul@grs+2,f
  2549  01B6  0DCB               	rlf	___flmul@grs+3,f
  2550  01B7  0BC2               	decfsz	??___flmul,f
  2551  01B8  29B2               	goto	u268_25
  2552  01B9  083A               	movf	___flmul@b,w
  2553  01BA  00C2               	movwf	??___flmul
  2554  01BB  0842               	movf	??___flmul,w
  2555  01BC  00F0               	movwf	__Umul8_16@multiplicand
  2556  01BD  083E               	movf	___flmul@a,w
  2557  01BE  120A  158A  24EB  120A  118A  	fcall	__Umul8_16
  2558  01C3  0871               	movf	?__Umul8_16+1,w
  2559  01C4  1283               	bcf	3,5	;RP0=0, select bank0
  2560  01C5  1303               	bcf	3,6	;RP1=0, select bank0
  2561  01C6  00D3               	movwf	___flmul@temp+1
  2562  01C7  0870               	movf	?__Umul8_16,w
  2563  01C8  00D2               	movwf	___flmul@temp
  2564  01C9                     i1l2064:
  2565  01C9  0852               	movf	___flmul@temp,w
  2566  01CA  00C2               	movwf	??___flmul
  2567  01CB  0853               	movf	___flmul@temp+1,w
  2568  01CC  00C3               	movwf	??___flmul+1
  2569  01CD  01C4               	clrf	??___flmul+2
  2570  01CE  01C5               	clrf	??___flmul+3
  2571  01CF  0842               	movf	??___flmul,w
  2572  01D0  07C8               	addwf	___flmul@grs,f
  2573  01D1  0843               	movf	??___flmul+1,w
  2574  01D2  1103               	clrz
  2575  01D3  1803               	skipnc
  2576  01D4  3E01               	addlw	1
  2577  01D5  1903               	skipnz
  2578  01D6  29D8               	goto	u269_21
  2579  01D7  07C9               	addwf	___flmul@grs+1,f
  2580  01D8                     u269_21:
  2581  01D8  0844               	movf	??___flmul+2,w
  2582  01D9  1103               	clrz
  2583  01DA  1803               	skipnc
  2584  01DB  3E01               	addlw	1
  2585  01DC  1903               	skipnz
  2586  01DD  29DF               	goto	u269_22
  2587  01DE  07CA               	addwf	___flmul@grs+2,f
  2588  01DF                     u269_22:
  2589  01DF  0845               	movf	??___flmul+3,w
  2590  01E0  1103               	clrz
  2591  01E1  1803               	skipnc
  2592  01E2  3E01               	addlw	1
  2593  01E3  1903               	skipnz
  2594  01E4  29E6               	goto	u269_23
  2595  01E5  07CB               	addwf	___flmul@grs+3,f
  2596  01E6                     u269_23:
  2597  01E6                     i1l2066:
  2598  01E6  083B               	movf	___flmul@b+1,w
  2599  01E7  00C2               	movwf	??___flmul
  2600  01E8  0842               	movf	??___flmul,w
  2601  01E9  00F0               	movwf	__Umul8_16@multiplicand
  2602  01EA  0840               	movf	___flmul@a+2,w
  2603  01EB  120A  158A  24EB  120A  118A  	fcall	__Umul8_16
  2604  01F0  0871               	movf	?__Umul8_16+1,w
  2605  01F1  1283               	bcf	3,5	;RP0=0, select bank0
  2606  01F2  1303               	bcf	3,6	;RP1=0, select bank0
  2607  01F3  00D3               	movwf	___flmul@temp+1
  2608  01F4  0870               	movf	?__Umul8_16,w
  2609  01F5  00D2               	movwf	___flmul@temp
  2610  01F6  0852               	movf	___flmul@temp,w
  2611  01F7  00C2               	movwf	??___flmul
  2612  01F8  0853               	movf	___flmul@temp+1,w
  2613  01F9  00C3               	movwf	??___flmul+1
  2614  01FA  01C4               	clrf	??___flmul+2
  2615  01FB  01C5               	clrf	??___flmul+3
  2616  01FC  0842               	movf	??___flmul,w
  2617  01FD  07CE               	addwf	___flmul@prod,f
  2618  01FE  0843               	movf	??___flmul+1,w
  2619  01FF  1103               	clrz
  2620  0200  1803               	skipnc
  2621  0201  3E01               	addlw	1
  2622  0202  1903               	skipnz
  2623  0203  2A05               	goto	u270_21
  2624  0204  07CF               	addwf	___flmul@prod+1,f
  2625  0205                     u270_21:
  2626  0205  0844               	movf	??___flmul+2,w
  2627  0206  1103               	clrz
  2628  0207  1803               	skipnc
  2629  0208  3E01               	addlw	1
  2630  0209  1903               	skipnz
  2631  020A  2A0C               	goto	u270_22
  2632  020B  07D0               	addwf	___flmul@prod+2,f
  2633  020C                     u270_22:
  2634  020C  0845               	movf	??___flmul+3,w
  2635  020D  1103               	clrz
  2636  020E  1803               	skipnc
  2637  020F  3E01               	addlw	1
  2638  0210  1903               	skipnz
  2639  0211  2A13               	goto	u270_23
  2640  0212  07D1               	addwf	___flmul@prod+3,f
  2641  0213                     u270_23:
  2642  0213                     i1l2068:
  2643  0213  083C               	movf	___flmul@b+2,w
  2644  0214  00C2               	movwf	??___flmul
  2645  0215  0842               	movf	??___flmul,w
  2646  0216  00F0               	movwf	__Umul8_16@multiplicand
  2647  0217  083F               	movf	___flmul@a+1,w
  2648  0218  120A  158A  24EB  120A  118A  	fcall	__Umul8_16
  2649  021D  0871               	movf	?__Umul8_16+1,w
  2650  021E  1283               	bcf	3,5	;RP0=0, select bank0
  2651  021F  1303               	bcf	3,6	;RP1=0, select bank0
  2652  0220  00D3               	movwf	___flmul@temp+1
  2653  0221  0870               	movf	?__Umul8_16,w
  2654  0222  00D2               	movwf	___flmul@temp
  2655  0223                     i1l2070:
  2656  0223  0852               	movf	___flmul@temp,w
  2657  0224  00C2               	movwf	??___flmul
  2658  0225  0853               	movf	___flmul@temp+1,w
  2659  0226  00C3               	movwf	??___flmul+1
  2660  0227  01C4               	clrf	??___flmul+2
  2661  0228  01C5               	clrf	??___flmul+3
  2662  0229  0842               	movf	??___flmul,w
  2663  022A  07CE               	addwf	___flmul@prod,f
  2664  022B  0843               	movf	??___flmul+1,w
  2665  022C  1103               	clrz
  2666  022D  1803               	skipnc
  2667  022E  3E01               	addlw	1
  2668  022F  1903               	skipnz
  2669  0230  2A32               	goto	u271_21
  2670  0231  07CF               	addwf	___flmul@prod+1,f
  2671  0232                     u271_21:
  2672  0232  0844               	movf	??___flmul+2,w
  2673  0233  1103               	clrz
  2674  0234  1803               	skipnc
  2675  0235  3E01               	addlw	1
  2676  0236  1903               	skipnz
  2677  0237  2A39               	goto	u271_22
  2678  0238  07D0               	addwf	___flmul@prod+2,f
  2679  0239                     u271_22:
  2680  0239  0845               	movf	??___flmul+3,w
  2681  023A  1103               	clrz
  2682  023B  1803               	skipnc
  2683  023C  3E01               	addlw	1
  2684  023D  1903               	skipnz
  2685  023E  2A40               	goto	u271_23
  2686  023F  07D1               	addwf	___flmul@prod+3,f
  2687  0240                     u271_23:
  2688  0240  083C               	movf	___flmul@b+2,w
  2689  0241  00C2               	movwf	??___flmul
  2690  0242  0842               	movf	??___flmul,w
  2691  0243  00F0               	movwf	__Umul8_16@multiplicand
  2692  0244  0840               	movf	___flmul@a+2,w
  2693  0245  120A  158A  24EB  120A  118A  	fcall	__Umul8_16
  2694  024A  0871               	movf	?__Umul8_16+1,w
  2695  024B  1283               	bcf	3,5	;RP0=0, select bank0
  2696  024C  1303               	bcf	3,6	;RP1=0, select bank0
  2697  024D  00D3               	movwf	___flmul@temp+1
  2698  024E  0870               	movf	?__Umul8_16,w
  2699  024F  00D2               	movwf	___flmul@temp
  2700  0250                     i1l2072:
  2701  0250  0852               	movf	___flmul@temp,w
  2702  0251  00C2               	movwf	??___flmul
  2703  0252  0853               	movf	___flmul@temp+1,w
  2704  0253  00C3               	movwf	??___flmul+1
  2705  0254  01C4               	clrf	??___flmul+2
  2706  0255  01C5               	clrf	??___flmul+3
  2707  0256  3008               	movlw	8
  2708  0257                     u272_25:
  2709  0257  1003               	clrc
  2710  0258  0DC2               	rlf	??___flmul,f
  2711  0259  0DC3               	rlf	??___flmul+1,f
  2712  025A  0DC4               	rlf	??___flmul+2,f
  2713  025B  0DC5               	rlf	??___flmul+3,f
  2714  025C                     u272_20:
  2715  025C  3EFF               	addlw	-1
  2716  025D  1D03               	skipz
  2717  025E  2A57               	goto	u272_25
  2718  025F  0842               	movf	??___flmul,w
  2719  0260  07CE               	addwf	___flmul@prod,f
  2720  0261  0843               	movf	??___flmul+1,w
  2721  0262  1103               	clrz
  2722  0263  1803               	skipnc
  2723  0264  3E01               	addlw	1
  2724  0265  1903               	skipnz
  2725  0266  2A68               	goto	u273_21
  2726  0267  07CF               	addwf	___flmul@prod+1,f
  2727  0268                     u273_21:
  2728  0268  0844               	movf	??___flmul+2,w
  2729  0269  1103               	clrz
  2730  026A  1803               	skipnc
  2731  026B  3E01               	addlw	1
  2732  026C  1903               	skipnz
  2733  026D  2A6F               	goto	u273_22
  2734  026E  07D0               	addwf	___flmul@prod+2,f
  2735  026F                     u273_22:
  2736  026F  0845               	movf	??___flmul+3,w
  2737  0270  1103               	clrz
  2738  0271  1803               	skipnc
  2739  0272  3E01               	addlw	1
  2740  0273  1903               	skipnz
  2741  0274  2A76               	goto	u273_23
  2742  0275  07D1               	addwf	___flmul@prod+3,f
  2743  0276                     u273_23:
  2744  0276                     i1l2074:
  2745  0276  0848               	movf	___flmul@grs,w
  2746  0277  00C2               	movwf	??___flmul
  2747  0278  0849               	movf	___flmul@grs+1,w
  2748  0279  00C3               	movwf	??___flmul+1
  2749  027A  084A               	movf	___flmul@grs+2,w
  2750  027B  00C4               	movwf	??___flmul+2
  2751  027C  084B               	movf	___flmul@grs+3,w
  2752  027D  00C5               	movwf	??___flmul+3
  2753  027E  3018               	movlw	24
  2754  027F                     u274_25:
  2755  027F  1003               	clrc
  2756  0280  0CC5               	rrf	??___flmul+3,f
  2757  0281  0CC4               	rrf	??___flmul+2,f
  2758  0282  0CC3               	rrf	??___flmul+1,f
  2759  0283  0CC2               	rrf	??___flmul,f
  2760  0284                     u274_20:
  2761  0284  3EFF               	addlw	-1
  2762  0285  1D03               	skipz
  2763  0286  2A7F               	goto	u274_25
  2764  0287  0842               	movf	??___flmul,w
  2765  0288  07CE               	addwf	___flmul@prod,f
  2766  0289  0843               	movf	??___flmul+1,w
  2767  028A  1103               	clrz
  2768  028B  1803               	skipnc
  2769  028C  3E01               	addlw	1
  2770  028D  1903               	skipnz
  2771  028E  2A90               	goto	u275_21
  2772  028F  07CF               	addwf	___flmul@prod+1,f
  2773  0290                     u275_21:
  2774  0290  0844               	movf	??___flmul+2,w
  2775  0291  1103               	clrz
  2776  0292  1803               	skipnc
  2777  0293  3E01               	addlw	1
  2778  0294  1903               	skipnz
  2779  0295  2A97               	goto	u275_22
  2780  0296  07D0               	addwf	___flmul@prod+2,f
  2781  0297                     u275_22:
  2782  0297  0845               	movf	??___flmul+3,w
  2783  0298  1103               	clrz
  2784  0299  1803               	skipnc
  2785  029A  3E01               	addlw	1
  2786  029B  1903               	skipnz
  2787  029C  2A9E               	goto	u275_23
  2788  029D  07D1               	addwf	___flmul@prod+3,f
  2789  029E                     u275_23:
  2790  029E                     i1l2076:
  2791  029E  3008               	movlw	8
  2792  029F  00C2               	movwf	??___flmul
  2793  02A0                     u276_25:
  2794  02A0  1003               	clrc
  2795  02A1  0DC8               	rlf	___flmul@grs,f
  2796  02A2  0DC9               	rlf	___flmul@grs+1,f
  2797  02A3  0DCA               	rlf	___flmul@grs+2,f
  2798  02A4  0DCB               	rlf	___flmul@grs+3,f
  2799  02A5  0BC2               	decfsz	??___flmul,f
  2800  02A6  2AA0               	goto	u276_25
  2801  02A7                     i1l2078:
  2802  02A7  084D               	movf	___flmul@bexp,w
  2803  02A8  074C               	addwf	___flmul@aexp,w
  2804  02A9  00C2               	movwf	??___flmul
  2805  02AA  01C3               	clrf	??___flmul+1
  2806  02AB  0DC3               	rlf	??___flmul+1,f
  2807  02AC  0842               	movf	??___flmul,w
  2808  02AD  3E82               	addlw	130
  2809  02AE  00D2               	movwf	___flmul@temp
  2810  02AF  0843               	movf	??___flmul+1,w
  2811  02B0  1803               	skipnc
  2812  02B1  3E01               	addlw	1
  2813  02B2  3EFF               	addlw	255
  2814  02B3  00D3               	movwf	___flmul@temp+1
  2815  02B4  2AD2               	goto	i1l2090
  2816  02B5                     i1l2080:
  2817  02B5  3001               	movlw	1
  2818  02B6  00C2               	movwf	??___flmul
  2819  02B7                     u277_25:
  2820  02B7  1003               	clrc
  2821  02B8  0DCE               	rlf	___flmul@prod,f
  2822  02B9  0DCF               	rlf	___flmul@prod+1,f
  2823  02BA  0DD0               	rlf	___flmul@prod+2,f
  2824  02BB  0DD1               	rlf	___flmul@prod+3,f
  2825  02BC  0BC2               	decfsz	??___flmul,f
  2826  02BD  2AB7               	goto	u277_25
  2827  02BE                     i1l2082:
  2828  02BE  1FCB               	btfss	___flmul@grs+3,7
  2829  02BF  2AC1               	goto	u278_21
  2830  02C0  2AC2               	goto	u278_20
  2831  02C1                     u278_21:
  2832  02C1  2AC3               	goto	i1l2086
  2833  02C2                     u278_20:
  2834  02C2                     i1l2084:
  2835  02C2  144E               	bsf	___flmul@prod,0
  2836  02C3                     i1l2086:
  2837  02C3  3001               	movlw	1
  2838  02C4  00C2               	movwf	??___flmul
  2839  02C5                     u279_25:
  2840  02C5  1003               	clrc
  2841  02C6  0DC8               	rlf	___flmul@grs,f
  2842  02C7  0DC9               	rlf	___flmul@grs+1,f
  2843  02C8  0DCA               	rlf	___flmul@grs+2,f
  2844  02C9  0DCB               	rlf	___flmul@grs+3,f
  2845  02CA  0BC2               	decfsz	??___flmul,f
  2846  02CB  2AC5               	goto	u279_25
  2847  02CC                     i1l2088:
  2848  02CC  30FF               	movlw	255
  2849  02CD  07D2               	addwf	___flmul@temp,f
  2850  02CE  1803               	skipnc
  2851  02CF  0AD3               	incf	___flmul@temp+1,f
  2852  02D0  30FF               	movlw	255
  2853  02D1  07D3               	addwf	___flmul@temp+1,f
  2854  02D2                     i1l2090:
  2855  02D2  1FD0               	btfss	___flmul@prod+2,7
  2856  02D3  2AD5               	goto	u280_21
  2857  02D4  2AD6               	goto	u280_20
  2858  02D5                     u280_21:
  2859  02D5  2AB5               	goto	i1l2080
  2860  02D6                     u280_20:
  2861  02D6                     i1l2092:
  2862  02D6  01CC               	clrf	___flmul@aexp
  2863  02D7                     i1l2094:
  2864  02D7  1FCB               	btfss	___flmul@grs+3,7
  2865  02D8  2ADA               	goto	u281_21
  2866  02D9  2ADB               	goto	u281_20
  2867  02DA                     u281_21:
  2868  02DA  2AF7               	goto	i1l2102
  2869  02DB                     u281_20:
  2870  02DB                     i1l2096:
  2871  02DB  30FF               	movlw	255
  2872  02DC  0548               	andwf	___flmul@grs,w
  2873  02DD  00C2               	movwf	??___flmul
  2874  02DE  30FF               	movlw	255
  2875  02DF  0549               	andwf	___flmul@grs+1,w
  2876  02E0  00C3               	movwf	??___flmul+1
  2877  02E1  30FF               	movlw	255
  2878  02E2  054A               	andwf	___flmul@grs+2,w
  2879  02E3  00C4               	movwf	??___flmul+2
  2880  02E4  307F               	movlw	127
  2881  02E5  054B               	andwf	___flmul@grs+3,w
  2882  02E6  00C5               	movwf	??___flmul+3
  2883  02E7  0845               	movf	??___flmul+3,w
  2884  02E8  0444               	iorwf	??___flmul+2,w
  2885  02E9  0443               	iorwf	??___flmul+1,w
  2886  02EA  0442               	iorwf	??___flmul,w
  2887  02EB  1903               	skipnz
  2888  02EC  2AEE               	goto	u282_21
  2889  02ED  2AEF               	goto	u282_20
  2890  02EE                     u282_21:
  2891  02EE  2AF2               	goto	i1l677
  2892  02EF                     u282_20:
  2893  02EF                     i1l2098:
  2894  02EF  01CC               	clrf	___flmul@aexp
  2895  02F0  0ACC               	incf	___flmul@aexp,f
  2896  02F1  2AF7               	goto	i1l2102
  2897  02F2                     i1l677:
  2898  02F2  1C4E               	btfss	___flmul@prod,0
  2899  02F3  2AF5               	goto	u283_21
  2900  02F4  2AF6               	goto	u283_20
  2901  02F5                     u283_21:
  2902  02F5  2AF7               	goto	i1l2102
  2903  02F6                     u283_20:
  2904  02F6  2AEF               	goto	i1l2098
  2905  02F7                     i1l2102:
  2906  02F7  084C               	movf	___flmul@aexp,w
  2907  02F8  1903               	btfsc	3,2
  2908  02F9  2AFB               	goto	u284_21
  2909  02FA  2AFC               	goto	u284_20
  2910  02FB                     u284_21:
  2911  02FB  2B2D               	goto	i1l2112
  2912  02FC                     u284_20:
  2913  02FC                     i1l2104:
  2914  02FC  3001               	movlw	1
  2915  02FD  07CE               	addwf	___flmul@prod,f
  2916  02FE  3000               	movlw	0
  2917  02FF  1803               	skipnc
  2918  0300  3001               	movlw	1
  2919  0301  07CF               	addwf	___flmul@prod+1,f
  2920  0302  3000               	movlw	0
  2921  0303  1803               	skipnc
  2922  0304  3001               	movlw	1
  2923  0305  07D0               	addwf	___flmul@prod+2,f
  2924  0306  3000               	movlw	0
  2925  0307  1803               	skipnc
  2926  0308  3001               	movlw	1
  2927  0309  07D1               	addwf	___flmul@prod+3,f
  2928  030A                     i1l2106:
  2929  030A  1C51               	btfss	___flmul@prod+3,0
  2930  030B  2B0D               	goto	u285_21
  2931  030C  2B0E               	goto	u285_20
  2932  030D                     u285_21:
  2933  030D  2B2D               	goto	i1l2112
  2934  030E                     u285_20:
  2935  030E                     i1l2108:
  2936  030E  084E               	movf	___flmul@prod,w
  2937  030F  00C2               	movwf	??___flmul
  2938  0310  084F               	movf	___flmul@prod+1,w
  2939  0311  00C3               	movwf	??___flmul+1
  2940  0312  0850               	movf	___flmul@prod+2,w
  2941  0313  00C4               	movwf	??___flmul+2
  2942  0314  0851               	movf	___flmul@prod+3,w
  2943  0315  00C5               	movwf	??___flmul+3
  2944  0316  3001               	movlw	1
  2945  0317  00C6               	movwf	??___flmul+4
  2946  0318                     u286_25:
  2947  0318  0D45               	rlf	??___flmul+3,w
  2948  0319  0CC5               	rrf	??___flmul+3,f
  2949  031A  0CC4               	rrf	??___flmul+2,f
  2950  031B  0CC3               	rrf	??___flmul+1,f
  2951  031C  0CC2               	rrf	??___flmul,f
  2952  031D                     u286_20:
  2953  031D  0BC6               	decfsz	??___flmul+4,f
  2954  031E  2B18               	goto	u286_25
  2955  031F  0845               	movf	??___flmul+3,w
  2956  0320  00D1               	movwf	___flmul@prod+3
  2957  0321  0844               	movf	??___flmul+2,w
  2958  0322  00D0               	movwf	___flmul@prod+2
  2959  0323  0843               	movf	??___flmul+1,w
  2960  0324  00CF               	movwf	___flmul@prod+1
  2961  0325  0842               	movf	??___flmul,w
  2962  0326  00CE               	movwf	___flmul@prod
  2963  0327                     i1l2110:
  2964  0327  3001               	movlw	1
  2965  0328  07D2               	addwf	___flmul@temp,f
  2966  0329  1803               	skipnc
  2967  032A  0AD3               	incf	___flmul@temp+1,f
  2968  032B  3000               	movlw	0
  2969  032C  07D3               	addwf	___flmul@temp+1,f
  2970  032D                     i1l2112:
  2971  032D  0853               	movf	___flmul@temp+1,w
  2972  032E  3A80               	xorlw	128
  2973  032F  00FF               	movwf	btemp+1
  2974  0330  3080               	movlw	128
  2975  0331  027F               	subwf	btemp+1,w
  2976  0332  1D03               	skipz
  2977  0333  2B36               	goto	u287_25
  2978  0334  30FF               	movlw	255
  2979  0335  0252               	subwf	___flmul@temp,w
  2980  0336                     u287_25:
  2981  0336  1C03               	skipc
  2982  0337  2B39               	goto	u287_21
  2983  0338  2B3A               	goto	u287_20
  2984  0339                     u287_21:
  2985  0339  2B45               	goto	i1l2116
  2986  033A                     u287_20:
  2987  033A                     i1l2114:
  2988  033A  307F               	movlw	127
  2989  033B  1283               	bcf	3,5	;RP0=0, select bank0
  2990  033C  1303               	bcf	3,6	;RP1=0, select bank0
  2991  033D  00D1               	movwf	___flmul@prod+3
  2992  033E  3080               	movlw	128
  2993  033F  00D0               	movwf	___flmul@prod+2
  2994  0340  3000               	movlw	0
  2995  0341  00CF               	movwf	___flmul@prod+1
  2996  0342  3000               	movlw	0
  2997  0343  00CE               	movwf	___flmul@prod
  2998  0344  2B7A               	goto	i1l683
  2999  0345                     i1l2116:
  3000  0345  1283               	bcf	3,5	;RP0=0, select bank0
  3001  0346  1303               	bcf	3,6	;RP1=0, select bank0
  3002  0347  0853               	movf	___flmul@temp+1,w
  3003  0348  3A80               	xorlw	128
  3004  0349  00FF               	movwf	btemp+1
  3005  034A  3080               	movlw	128
  3006  034B  027F               	subwf	btemp+1,w
  3007  034C  1D03               	skipz
  3008  034D  2B50               	goto	u288_25
  3009  034E  3001               	movlw	1
  3010  034F  0252               	subwf	___flmul@temp,w
  3011  0350                     u288_25:
  3012  0350  1803               	skipnc
  3013  0351  2B53               	goto	u288_21
  3014  0352  2B54               	goto	u288_20
  3015  0353                     u288_21:
  3016  0353  2B60               	goto	i1l2122
  3017  0354                     u288_20:
  3018  0354                     i1l2118:
  3019  0354  3000               	movlw	0
  3020  0355  1283               	bcf	3,5	;RP0=0, select bank0
  3021  0356  1303               	bcf	3,6	;RP1=0, select bank0
  3022  0357  00D1               	movwf	___flmul@prod+3
  3023  0358  3000               	movlw	0
  3024  0359  00D0               	movwf	___flmul@prod+2
  3025  035A  3000               	movlw	0
  3026  035B  00CF               	movwf	___flmul@prod+1
  3027  035C  3000               	movlw	0
  3028  035D  00CE               	movwf	___flmul@prod
  3029  035E                     i1l2120:
  3030  035E  01C7               	clrf	___flmul@sign
  3031  035F  2B7A               	goto	i1l683
  3032  0360                     i1l2122:
  3033  0360  1283               	bcf	3,5	;RP0=0, select bank0
  3034  0361  1303               	bcf	3,6	;RP1=0, select bank0
  3035  0362  0852               	movf	___flmul@temp,w
  3036  0363  00C2               	movwf	??___flmul
  3037  0364  0842               	movf	??___flmul,w
  3038  0365  00CD               	movwf	___flmul@bexp
  3039  0366  30FF               	movlw	255
  3040  0367  05CE               	andwf	___flmul@prod,f
  3041  0368  30FF               	movlw	255
  3042  0369  05CF               	andwf	___flmul@prod+1,f
  3043  036A  307F               	movlw	127
  3044  036B  05D0               	andwf	___flmul@prod+2,f
  3045  036C  3000               	movlw	0
  3046  036D  05D1               	andwf	___flmul@prod+3,f
  3047  036E                     i1l2124:
  3048  036E  1C4D               	btfss	___flmul@bexp,0
  3049  036F  2B71               	goto	u289_21
  3050  0370  2B72               	goto	u289_20
  3051  0371                     u289_21:
  3052  0371  2B73               	goto	i1l2128
  3053  0372                     u289_20:
  3054  0372                     i1l2126:
  3055  0372  17D0               	bsf	___flmul@prod+2,7
  3056  0373                     i1l2128:
  3057  0373  084D               	movf	___flmul@bexp,w
  3058  0374  00C2               	movwf	??___flmul
  3059  0375  1003               	clrc
  3060  0376  0C42               	rrf	??___flmul,w
  3061  0377  00C3               	movwf	??___flmul+1
  3062  0378  0843               	movf	??___flmul+1,w
  3063  0379  00D1               	movwf	___flmul@prod+3
  3064  037A                     i1l683:
  3065  037A  0847               	movf	___flmul@sign,w
  3066  037B  00C2               	movwf	??___flmul
  3067  037C  0842               	movf	??___flmul,w
  3068  037D  04D1               	iorwf	___flmul@prod+3,f
  3069  037E                     i1l2130:
  3070  037E  0851               	movf	___flmul@prod+3,w
  3071  037F  00BD               	movwf	?___flmul+3
  3072  0380  0850               	movf	___flmul@prod+2,w
  3073  0381  00BC               	movwf	?___flmul+2
  3074  0382  084F               	movf	___flmul@prod+1,w
  3075  0383  00BB               	movwf	?___flmul+1
  3076  0384  084E               	movf	___flmul@prod,w
  3077  0385  00BA               	movwf	?___flmul
  3078  0386                     i1l671:
  3079  0386  0008               	return
  3080  0387                     __end_of___flmul:
  3081                           
  3082                           	psect	text9
  3083  0CEB                     __ptext9:	
  3084 ;; *************** function __Umul8_16 *****************
  3085 ;; Defined at:
  3086 ;;		line 4 in file "C:\Program Files\Microchip\xc8\v2.35\pic\sources\c90\common\Umul8_16.c"
  3087 ;; Parameters:    Size  Location     Type
  3088 ;;  multiplier      1    wreg     unsigned char 
  3089 ;;  multiplicand    1    0[COMMON] unsigned char 
  3090 ;; Auto vars:     Size  Location     Type
  3091 ;;  multiplier      1    8[COMMON] unsigned char 
  3092 ;;  word_mpld       2    6[COMMON] unsigned int 
  3093 ;;  product         2    4[COMMON] unsigned int 
  3094 ;; Return value:  Size  Location     Type
  3095 ;;                  2    0[COMMON] unsigned int 
  3096 ;; Registers used:
  3097 ;;		wreg, status,2, status,0
  3098 ;; Tracked objects:
  3099 ;;		On entry : 0/0
  3100 ;;		On exit  : 0/0
  3101 ;;		Unchanged: 0/0
  3102 ;; Data sizes:     COMMON   BANK0   BANK1   BANK3   BANK2
  3103 ;;      Params:         2       0       0       0       0
  3104 ;;      Locals:         5       0       0       0       0
  3105 ;;      Temps:          2       0       0       0       0
  3106 ;;      Totals:         9       0       0       0       0
  3107 ;;Total ram usage:        9 bytes
  3108 ;; Hardware stack levels used: 1
  3109 ;; This function calls:
  3110 ;;		Nothing
  3111 ;; This function is called by:
  3112 ;;		___flmul
  3113 ;; This function uses a non-reentrant model
  3114 ;;
  3115                           
  3116  0CEB                     __Umul8_16:	
  3117                           ;psect for function __Umul8_16
  3118                           
  3119                           
  3120                           ;incstack = 0
  3121                           ; Regs used in __Umul8_16: [wreg+status,2+status,0]
  3122                           ;__Umul8_16@multiplier stored from wreg
  3123  0CEB  00F8               	movwf	__Umul8_16@multiplier
  3124  0CEC                     i1l1606:
  3125  0CEC  01F4               	clrf	__Umul8_16@product
  3126  0CED  01F5               	clrf	__Umul8_16@product+1
  3127  0CEE                     i1l1608:
  3128  0CEE  0870               	movf	__Umul8_16@multiplicand,w
  3129  0CEF  00F2               	movwf	??__Umul8_16
  3130  0CF0  01F3               	clrf	??__Umul8_16+1
  3131  0CF1  0872               	movf	??__Umul8_16,w
  3132  0CF2  00F6               	movwf	__Umul8_16@word_mpld
  3133  0CF3  0873               	movf	??__Umul8_16+1,w
  3134  0CF4  00F7               	movwf	__Umul8_16@word_mpld+1
  3135  0CF5                     i1l1610:
  3136  0CF5  1C78               	btfss	__Umul8_16@multiplier,0
  3137  0CF6  2CF8               	goto	u164_21
  3138  0CF7  2CF9               	goto	u164_20
  3139  0CF8                     u164_21:
  3140  0CF8  2CFF               	goto	i1l690
  3141  0CF9                     u164_20:
  3142  0CF9                     i1l1612:
  3143  0CF9  0876               	movf	__Umul8_16@word_mpld,w
  3144  0CFA  07F4               	addwf	__Umul8_16@product,f
  3145  0CFB  1803               	skipnc
  3146  0CFC  0AF5               	incf	__Umul8_16@product+1,f
  3147  0CFD  0877               	movf	__Umul8_16@word_mpld+1,w
  3148  0CFE  07F5               	addwf	__Umul8_16@product+1,f
  3149  0CFF                     i1l690:
  3150  0CFF  3001               	movlw	1
  3151  0D00                     u165_25:
  3152  0D00  1003               	clrc
  3153  0D01  0DF6               	rlf	__Umul8_16@word_mpld,f
  3154  0D02  0DF7               	rlf	__Umul8_16@word_mpld+1,f
  3155  0D03  3EFF               	addlw	-1
  3156  0D04  1D03               	skipz
  3157  0D05  2D00               	goto	u165_25
  3158  0D06  1003               	clrc
  3159  0D07  0CF8               	rrf	__Umul8_16@multiplier,f
  3160  0D08                     i1l1614:
  3161  0D08  0878               	movf	__Umul8_16@multiplier,w
  3162  0D09  1D03               	btfss	3,2
  3163  0D0A  2D0C               	goto	u166_21
  3164  0D0B  2D0D               	goto	u166_20
  3165  0D0C                     u166_21:
  3166  0D0C  2CF5               	goto	i1l1610
  3167  0D0D                     u166_20:
  3168  0D0D                     i1l1616:
  3169  0D0D  0875               	movf	__Umul8_16@product+1,w
  3170  0D0E  00F1               	movwf	?__Umul8_16+1
  3171  0D0F  0874               	movf	__Umul8_16@product,w
  3172  0D10  00F0               	movwf	?__Umul8_16
  3173  0D11                     i1l692:
  3174  0D11  0008               	return
  3175  0D12                     __end_of__Umul8_16:
  3176                           
  3177                           	psect	text10
  3178  060F                     __ptext10:	
  3179 ;; *************** function ___fldiv *****************
  3180 ;; Defined at:
  3181 ;;		line 8 in file "C:\Program Files\Microchip\xc8\v2.35\pic\sources\c90\common\sprcdiv.c"
  3182 ;; Parameters:    Size  Location     Type
  3183 ;;  a               4    0[BANK0 ] unsigned int 
  3184 ;;  b               4    4[BANK0 ] unsigned int 
  3185 ;; Auto vars:     Size  Location     Type
  3186 ;;  grs             4   20[BANK0 ] unsigned long 
  3187 ;;  rem             4   13[BANK0 ] unsigned long 
  3188 ;;  new_exp         2   18[BANK0 ] int 
  3189 ;;  aexp            1   25[BANK0 ] unsigned char 
  3190 ;;  bexp            1   24[BANK0 ] unsigned char 
  3191 ;;  sign            1   17[BANK0 ] unsigned char 
  3192 ;; Return value:  Size  Location     Type
  3193 ;;                  4    0[BANK0 ] unsigned char 
  3194 ;; Registers used:
  3195 ;;		wreg, status,2, status,0, btemp+1
  3196 ;; Tracked objects:
  3197 ;;		On entry : 0/0
  3198 ;;		On exit  : 0/0
  3199 ;;		Unchanged: 0/0
  3200 ;; Data sizes:     COMMON   BANK0   BANK1   BANK3   BANK2
  3201 ;;      Params:         0       8       0       0       0
  3202 ;;      Locals:         0      13       0       0       0
  3203 ;;      Temps:          0       5       0       0       0
  3204 ;;      Totals:         0      26       0       0       0
  3205 ;;Total ram usage:       26 bytes
  3206 ;; Hardware stack levels used: 1
  3207 ;; This function calls:
  3208 ;;		Nothing
  3209 ;; This function is called by:
  3210 ;;		_map
  3211 ;; This function uses a non-reentrant model
  3212 ;;
  3213                           
  3214  060F                     ___fldiv:	
  3215                           ;psect for function ___fldiv
  3216                           
  3217  060F                     i1l1852:	
  3218                           ;incstack = 0
  3219                           ; Regs used in ___fldiv: [wreg+status,2+status,0+btemp+1]
  3220                           
  3221  060F  1283               	bcf	3,5	;RP0=0, select bank0
  3222  0610  1303               	bcf	3,6	;RP1=0, select bank0
  3223  0611  0827               	movf	___fldiv@b+3,w
  3224  0612  3980               	andlw	128
  3225  0613  00A8               	movwf	??___fldiv
  3226  0614  0828               	movf	??___fldiv,w
  3227  0615  00B1               	movwf	___fldiv@sign
  3228  0616                     i1l1854:
  3229  0616  0827               	movf	___fldiv@b+3,w
  3230  0617  00A8               	movwf	??___fldiv
  3231  0618  0728               	addwf	??___fldiv,w
  3232  0619  00A9               	movwf	??___fldiv+1
  3233  061A  0829               	movf	??___fldiv+1,w
  3234  061B  00B8               	movwf	___fldiv@bexp
  3235  061C                     i1l1856:
  3236  061C  1FA6               	btfss	___fldiv@b+2,7
  3237  061D  2E1F               	goto	u224_21
  3238  061E  2E20               	goto	u224_20
  3239  061F                     u224_21:
  3240  061F  2E21               	goto	i1l1860
  3241  0620                     u224_20:
  3242  0620                     i1l1858:
  3243  0620  1438               	bsf	___fldiv@bexp,0
  3244  0621                     i1l1860:
  3245  0621  0838               	movf	___fldiv@bexp,w
  3246  0622  1903               	btfsc	3,2
  3247  0623  2E25               	goto	u225_21
  3248  0624  2E26               	goto	u225_20
  3249  0625                     u225_21:
  3250  0625  2E36               	goto	i1l1870
  3251  0626                     u225_20:
  3252  0626                     i1l1862:
  3253  0626  0A38               	incf	___fldiv@bexp,w
  3254  0627  1D03               	btfss	3,2
  3255  0628  2E2A               	goto	u226_21
  3256  0629  2E2B               	goto	u226_20
  3257  062A                     u226_21:
  3258  062A  2E33               	goto	i1l1866
  3259  062B                     u226_20:
  3260  062B                     i1l1864:
  3261  062B  3000               	movlw	0
  3262  062C  00A7               	movwf	___fldiv@b+3
  3263  062D  3000               	movlw	0
  3264  062E  00A6               	movwf	___fldiv@b+2
  3265  062F  3000               	movlw	0
  3266  0630  00A5               	movwf	___fldiv@b+1
  3267  0631  3000               	movlw	0
  3268  0632  00A4               	movwf	___fldiv@b
  3269  0633                     i1l1866:
  3270  0633  17A6               	bsf	___fldiv@b+2,7
  3271  0634                     i1l1868:
  3272  0634  01A7               	clrf	___fldiv@b+3
  3273  0635  2E3E               	goto	i1l1872
  3274  0636                     i1l1870:
  3275  0636  3000               	movlw	0
  3276  0637  00A7               	movwf	___fldiv@b+3
  3277  0638  3000               	movlw	0
  3278  0639  00A6               	movwf	___fldiv@b+2
  3279  063A  3000               	movlw	0
  3280  063B  00A5               	movwf	___fldiv@b+1
  3281  063C  3000               	movlw	0
  3282  063D  00A4               	movwf	___fldiv@b
  3283  063E                     i1l1872:
  3284  063E  0823               	movf	___fldiv@a+3,w
  3285  063F  3980               	andlw	128
  3286  0640  00A8               	movwf	??___fldiv
  3287  0641  0828               	movf	??___fldiv,w
  3288  0642  06B1               	xorwf	___fldiv@sign,f
  3289  0643                     i1l1874:
  3290  0643  0823               	movf	___fldiv@a+3,w
  3291  0644  00A8               	movwf	??___fldiv
  3292  0645  0728               	addwf	??___fldiv,w
  3293  0646  00A9               	movwf	??___fldiv+1
  3294  0647  0829               	movf	??___fldiv+1,w
  3295  0648  00B9               	movwf	___fldiv@aexp
  3296  0649                     i1l1876:
  3297  0649  1FA2               	btfss	___fldiv@a+2,7
  3298  064A  2E4C               	goto	u227_21
  3299  064B  2E4D               	goto	u227_20
  3300  064C                     u227_21:
  3301  064C  2E4E               	goto	i1l1880
  3302  064D                     u227_20:
  3303  064D                     i1l1878:
  3304  064D  1439               	bsf	___fldiv@aexp,0
  3305  064E                     i1l1880:
  3306  064E  0839               	movf	___fldiv@aexp,w
  3307  064F  1903               	btfsc	3,2
  3308  0650  2E52               	goto	u228_21
  3309  0651  2E53               	goto	u228_20
  3310  0652                     u228_21:
  3311  0652  2E63               	goto	i1l1890
  3312  0653                     u228_20:
  3313  0653                     i1l1882:
  3314  0653  0A39               	incf	___fldiv@aexp,w
  3315  0654  1D03               	btfss	3,2
  3316  0655  2E57               	goto	u229_21
  3317  0656  2E58               	goto	u229_20
  3318  0657                     u229_21:
  3319  0657  2E60               	goto	i1l1886
  3320  0658                     u229_20:
  3321  0658                     i1l1884:
  3322  0658  3000               	movlw	0
  3323  0659  00A3               	movwf	___fldiv@a+3
  3324  065A  3000               	movlw	0
  3325  065B  00A2               	movwf	___fldiv@a+2
  3326  065C  3000               	movlw	0
  3327  065D  00A1               	movwf	___fldiv@a+1
  3328  065E  3000               	movlw	0
  3329  065F  00A0               	movwf	___fldiv@a
  3330  0660                     i1l1886:
  3331  0660  17A2               	bsf	___fldiv@a+2,7
  3332  0661                     i1l1888:
  3333  0661  01A3               	clrf	___fldiv@a+3
  3334  0662  2E6B               	goto	i1l631
  3335  0663                     i1l1890:
  3336  0663  3000               	movlw	0
  3337  0664  00A3               	movwf	___fldiv@a+3
  3338  0665  3000               	movlw	0
  3339  0666  00A2               	movwf	___fldiv@a+2
  3340  0667  3000               	movlw	0
  3341  0668  00A1               	movwf	___fldiv@a+1
  3342  0669  3000               	movlw	0
  3343  066A  00A0               	movwf	___fldiv@a
  3344  066B                     i1l631:
  3345  066B  0823               	movf	___fldiv@a+3,w
  3346  066C  0422               	iorwf	___fldiv@a+2,w
  3347  066D  0421               	iorwf	___fldiv@a+1,w
  3348  066E  0420               	iorwf	___fldiv@a,w
  3349  066F  1D03               	skipz
  3350  0670  2E72               	goto	u230_21
  3351  0671  2E73               	goto	u230_20
  3352  0672                     u230_21:
  3353  0672  2E8C               	goto	i1l1900
  3354  0673                     u230_20:
  3355  0673                     i1l1892:
  3356  0673  3000               	movlw	0
  3357  0674  00A7               	movwf	___fldiv@b+3
  3358  0675  3000               	movlw	0
  3359  0676  00A6               	movwf	___fldiv@b+2
  3360  0677  3000               	movlw	0
  3361  0678  00A5               	movwf	___fldiv@b+1
  3362  0679  3000               	movlw	0
  3363  067A  00A4               	movwf	___fldiv@b
  3364  067B  3080               	movlw	128
  3365  067C  04A6               	iorwf	___fldiv@b+2,f
  3366  067D  307F               	movlw	127
  3367  067E  04A7               	iorwf	___fldiv@b+3,f
  3368  067F                     i1l1894:
  3369  067F  0831               	movf	___fldiv@sign,w
  3370  0680  00A8               	movwf	??___fldiv
  3371  0681  0828               	movf	??___fldiv,w
  3372  0682  04A7               	iorwf	___fldiv@b+3,f
  3373  0683                     i1l1896:
  3374  0683  0827               	movf	___fldiv@b+3,w
  3375  0684  00A3               	movwf	?___fldiv+3
  3376  0685  0826               	movf	___fldiv@b+2,w
  3377  0686  00A2               	movwf	?___fldiv+2
  3378  0687  0825               	movf	___fldiv@b+1,w
  3379  0688  00A1               	movwf	?___fldiv+1
  3380  0689  0824               	movf	___fldiv@b,w
  3381  068A  00A0               	movwf	?___fldiv
  3382  068B  2FEB               	goto	i1l633
  3383  068C                     i1l1900:
  3384  068C  0838               	movf	___fldiv@bexp,w
  3385  068D  1D03               	btfss	3,2
  3386  068E  2E90               	goto	u231_21
  3387  068F  2E91               	goto	u231_20
  3388  0690                     u231_21:
  3389  0690  2E9A               	goto	i1l1906
  3390  0691                     u231_20:
  3391  0691                     i1l1902:
  3392  0691  3000               	movlw	0
  3393  0692  00A3               	movwf	?___fldiv+3
  3394  0693  3000               	movlw	0
  3395  0694  00A2               	movwf	?___fldiv+2
  3396  0695  3000               	movlw	0
  3397  0696  00A1               	movwf	?___fldiv+1
  3398  0697  3000               	movlw	0
  3399  0698  00A0               	movwf	?___fldiv
  3400  0699  2FEB               	goto	i1l633
  3401  069A                     i1l1906:
  3402  069A  0838               	movf	___fldiv@bexp,w
  3403  069B  00A8               	movwf	??___fldiv
  3404  069C  01A9               	clrf	??___fldiv+1
  3405  069D  0829               	movf	??___fldiv+1,w
  3406  069E  00AB               	movwf	??___fldiv+3
  3407  069F  0839               	movf	___fldiv@aexp,w
  3408  06A0  0228               	subwf	??___fldiv,w
  3409  06A1  00AA               	movwf	??___fldiv+2
  3410  06A2  1C03               	skipc
  3411  06A3  03AB               	decf	??___fldiv+3,f
  3412  06A4  082A               	movf	??___fldiv+2,w
  3413  06A5  3E7F               	addlw	127
  3414  06A6  00B2               	movwf	___fldiv@new_exp
  3415  06A7  082B               	movf	??___fldiv+3,w
  3416  06A8  1803               	skipnc
  3417  06A9  3E01               	addlw	1
  3418  06AA  3E00               	addlw	0
  3419  06AB  00B3               	movwf	___fldiv@new_exp+1
  3420  06AC                     i1l1908:
  3421  06AC  0827               	movf	___fldiv@b+3,w
  3422  06AD  00B0               	movwf	___fldiv@rem+3
  3423  06AE  0826               	movf	___fldiv@b+2,w
  3424  06AF  00AF               	movwf	___fldiv@rem+2
  3425  06B0  0825               	movf	___fldiv@b+1,w
  3426  06B1  00AE               	movwf	___fldiv@rem+1
  3427  06B2  0824               	movf	___fldiv@b,w
  3428  06B3  00AD               	movwf	___fldiv@rem
  3429  06B4                     i1l1910:
  3430  06B4  3000               	movlw	0
  3431  06B5  00A7               	movwf	___fldiv@b+3
  3432  06B6  3000               	movlw	0
  3433  06B7  00A6               	movwf	___fldiv@b+2
  3434  06B8  3000               	movlw	0
  3435  06B9  00A5               	movwf	___fldiv@b+1
  3436  06BA  3000               	movlw	0
  3437  06BB  00A4               	movwf	___fldiv@b
  3438  06BC                     i1l1912:
  3439  06BC  3000               	movlw	0
  3440  06BD  00B7               	movwf	___fldiv@grs+3
  3441  06BE  3000               	movlw	0
  3442  06BF  00B6               	movwf	___fldiv@grs+2
  3443  06C0  3000               	movlw	0
  3444  06C1  00B5               	movwf	___fldiv@grs+1
  3445  06C2  3000               	movlw	0
  3446  06C3  00B4               	movwf	___fldiv@grs
  3447  06C4                     i1l1914:
  3448  06C4  01B9               	clrf	___fldiv@aexp
  3449  06C5  2F10               	goto	i1l1934
  3450  06C6                     i1l1916:
  3451  06C6  0839               	movf	___fldiv@aexp,w
  3452  06C7  1903               	btfsc	3,2
  3453  06C8  2ECA               	goto	u232_21
  3454  06C9  2ECB               	goto	u232_20
  3455  06CA                     u232_21:
  3456  06CA  2EEB               	goto	i1l1926
  3457  06CB                     u232_20:
  3458  06CB                     i1l1918:
  3459  06CB  3001               	movlw	1
  3460  06CC  00A8               	movwf	??___fldiv
  3461  06CD                     u233_25:
  3462  06CD  1003               	clrc
  3463  06CE  0DAD               	rlf	___fldiv@rem,f
  3464  06CF  0DAE               	rlf	___fldiv@rem+1,f
  3465  06D0  0DAF               	rlf	___fldiv@rem+2,f
  3466  06D1  0DB0               	rlf	___fldiv@rem+3,f
  3467  06D2  0BA8               	decfsz	??___fldiv,f
  3468  06D3  2ECD               	goto	u233_25
  3469  06D4  3001               	movlw	1
  3470  06D5  00A8               	movwf	??___fldiv
  3471  06D6                     u234_25:
  3472  06D6  1003               	clrc
  3473  06D7  0DA4               	rlf	___fldiv@b,f
  3474  06D8  0DA5               	rlf	___fldiv@b+1,f
  3475  06D9  0DA6               	rlf	___fldiv@b+2,f
  3476  06DA  0DA7               	rlf	___fldiv@b+3,f
  3477  06DB  0BA8               	decfsz	??___fldiv,f
  3478  06DC  2ED6               	goto	u234_25
  3479  06DD                     i1l1920:
  3480  06DD  1FB7               	btfss	___fldiv@grs+3,7
  3481  06DE  2EE0               	goto	u235_21
  3482  06DF  2EE1               	goto	u235_20
  3483  06E0                     u235_21:
  3484  06E0  2EE2               	goto	i1l1924
  3485  06E1                     u235_20:
  3486  06E1                     i1l1922:
  3487  06E1  1424               	bsf	___fldiv@b,0
  3488  06E2                     i1l1924:
  3489  06E2  3001               	movlw	1
  3490  06E3  00A8               	movwf	??___fldiv
  3491  06E4                     u236_25:
  3492  06E4  1003               	clrc
  3493  06E5  0DB4               	rlf	___fldiv@grs,f
  3494  06E6  0DB5               	rlf	___fldiv@grs+1,f
  3495  06E7  0DB6               	rlf	___fldiv@grs+2,f
  3496  06E8  0DB7               	rlf	___fldiv@grs+3,f
  3497  06E9  0BA8               	decfsz	??___fldiv,f
  3498  06EA  2EE4               	goto	u236_25
  3499  06EB                     i1l1926:
  3500  06EB  0823               	movf	___fldiv@a+3,w
  3501  06EC  0230               	subwf	___fldiv@rem+3,w
  3502  06ED  1D03               	skipz
  3503  06EE  2EF9               	goto	u237_25
  3504  06EF  0822               	movf	___fldiv@a+2,w
  3505  06F0  022F               	subwf	___fldiv@rem+2,w
  3506  06F1  1D03               	skipz
  3507  06F2  2EF9               	goto	u237_25
  3508  06F3  0821               	movf	___fldiv@a+1,w
  3509  06F4  022E               	subwf	___fldiv@rem+1,w
  3510  06F5  1D03               	skipz
  3511  06F6  2EF9               	goto	u237_25
  3512  06F7  0820               	movf	___fldiv@a,w
  3513  06F8  022D               	subwf	___fldiv@rem,w
  3514  06F9                     u237_25:
  3515  06F9  1C03               	skipc
  3516  06FA  2EFC               	goto	u237_21
  3517  06FB  2EFD               	goto	u237_20
  3518  06FC                     u237_21:
  3519  06FC  2F0C               	goto	i1l1932
  3520  06FD                     u237_20:
  3521  06FD                     i1l1928:
  3522  06FD  1737               	bsf	___fldiv@grs+3,6
  3523  06FE                     i1l1930:
  3524  06FE  0820               	movf	___fldiv@a,w
  3525  06FF  02AD               	subwf	___fldiv@rem,f
  3526  0700  0821               	movf	___fldiv@a+1,w
  3527  0701  1C03               	skipc
  3528  0702  0F21               	incfsz	___fldiv@a+1,w
  3529  0703  02AE               	subwf	___fldiv@rem+1,f
  3530  0704  0822               	movf	___fldiv@a+2,w
  3531  0705  1C03               	skipc
  3532  0706  0F22               	incfsz	___fldiv@a+2,w
  3533  0707  02AF               	subwf	___fldiv@rem+2,f
  3534  0708  0823               	movf	___fldiv@a+3,w
  3535  0709  1C03               	skipc
  3536  070A  0F23               	incfsz	___fldiv@a+3,w
  3537  070B  02B0               	subwf	___fldiv@rem+3,f
  3538  070C                     i1l1932:
  3539  070C  3001               	movlw	1
  3540  070D  00A8               	movwf	??___fldiv
  3541  070E  0828               	movf	??___fldiv,w
  3542  070F  07B9               	addwf	___fldiv@aexp,f
  3543  0710                     i1l1934:
  3544  0710  301A               	movlw	26
  3545  0711  0239               	subwf	___fldiv@aexp,w
  3546  0712  1C03               	skipc
  3547  0713  2F15               	goto	u238_21
  3548  0714  2F16               	goto	u238_20
  3549  0715                     u238_21:
  3550  0715  2EC6               	goto	i1l1916
  3551  0716                     u238_20:
  3552  0716                     i1l1936:
  3553  0716  0830               	movf	___fldiv@rem+3,w
  3554  0717  042F               	iorwf	___fldiv@rem+2,w
  3555  0718  042E               	iorwf	___fldiv@rem+1,w
  3556  0719  042D               	iorwf	___fldiv@rem,w
  3557  071A  1903               	skipnz
  3558  071B  2F1D               	goto	u239_21
  3559  071C  2F1E               	goto	u239_20
  3560  071D                     u239_21:
  3561  071D  2F3D               	goto	i1l1950
  3562  071E                     u239_20:
  3563  071E                     i1l1938:
  3564  071E  1434               	bsf	___fldiv@grs,0
  3565  071F  2F3D               	goto	i1l1950
  3566  0720                     i1l1940:
  3567  0720  3001               	movlw	1
  3568  0721  00A8               	movwf	??___fldiv
  3569  0722                     u240_25:
  3570  0722  1003               	clrc
  3571  0723  0DA4               	rlf	___fldiv@b,f
  3572  0724  0DA5               	rlf	___fldiv@b+1,f
  3573  0725  0DA6               	rlf	___fldiv@b+2,f
  3574  0726  0DA7               	rlf	___fldiv@b+3,f
  3575  0727  0BA8               	decfsz	??___fldiv,f
  3576  0728  2F22               	goto	u240_25
  3577  0729                     i1l1942:
  3578  0729  1FB7               	btfss	___fldiv@grs+3,7
  3579  072A  2F2C               	goto	u241_21
  3580  072B  2F2D               	goto	u241_20
  3581  072C                     u241_21:
  3582  072C  2F2E               	goto	i1l1946
  3583  072D                     u241_20:
  3584  072D                     i1l1944:
  3585  072D  1424               	bsf	___fldiv@b,0
  3586  072E                     i1l1946:
  3587  072E  3001               	movlw	1
  3588  072F  00A8               	movwf	??___fldiv
  3589  0730                     u242_25:
  3590  0730  1003               	clrc
  3591  0731  0DB4               	rlf	___fldiv@grs,f
  3592  0732  0DB5               	rlf	___fldiv@grs+1,f
  3593  0733  0DB6               	rlf	___fldiv@grs+2,f
  3594  0734  0DB7               	rlf	___fldiv@grs+3,f
  3595  0735  0BA8               	decfsz	??___fldiv,f
  3596  0736  2F30               	goto	u242_25
  3597  0737                     i1l1948:
  3598  0737  30FF               	movlw	255
  3599  0738  07B2               	addwf	___fldiv@new_exp,f
  3600  0739  1803               	skipnc
  3601  073A  0AB3               	incf	___fldiv@new_exp+1,f
  3602  073B  30FF               	movlw	255
  3603  073C  07B3               	addwf	___fldiv@new_exp+1,f
  3604  073D                     i1l1950:
  3605  073D  1FA6               	btfss	___fldiv@b+2,7
  3606  073E  2F40               	goto	u243_21
  3607  073F  2F41               	goto	u243_20
  3608  0740                     u243_21:
  3609  0740  2F20               	goto	i1l1940
  3610  0741                     u243_20:
  3611  0741                     i1l1952:
  3612  0741  01B9               	clrf	___fldiv@aexp
  3613  0742                     i1l1954:
  3614  0742  1FB7               	btfss	___fldiv@grs+3,7
  3615  0743  2F45               	goto	u244_21
  3616  0744  2F46               	goto	u244_20
  3617  0745                     u244_21:
  3618  0745  2F62               	goto	i1l1962
  3619  0746                     u244_20:
  3620  0746                     i1l1956:
  3621  0746  30FF               	movlw	255
  3622  0747  0534               	andwf	___fldiv@grs,w
  3623  0748  00A8               	movwf	??___fldiv
  3624  0749  30FF               	movlw	255
  3625  074A  0535               	andwf	___fldiv@grs+1,w
  3626  074B  00A9               	movwf	??___fldiv+1
  3627  074C  30FF               	movlw	255
  3628  074D  0536               	andwf	___fldiv@grs+2,w
  3629  074E  00AA               	movwf	??___fldiv+2
  3630  074F  307F               	movlw	127
  3631  0750  0537               	andwf	___fldiv@grs+3,w
  3632  0751  00AB               	movwf	??___fldiv+3
  3633  0752  082B               	movf	??___fldiv+3,w
  3634  0753  042A               	iorwf	??___fldiv+2,w
  3635  0754  0429               	iorwf	??___fldiv+1,w
  3636  0755  0428               	iorwf	??___fldiv,w
  3637  0756  1903               	skipnz
  3638  0757  2F59               	goto	u245_21
  3639  0758  2F5A               	goto	u245_20
  3640  0759                     u245_21:
  3641  0759  2F5D               	goto	i1l647
  3642  075A                     u245_20:
  3643  075A                     i1l1958:
  3644  075A  01B9               	clrf	___fldiv@aexp
  3645  075B  0AB9               	incf	___fldiv@aexp,f
  3646  075C  2F62               	goto	i1l1962
  3647  075D                     i1l647:
  3648  075D  1C24               	btfss	___fldiv@b,0
  3649  075E  2F60               	goto	u246_21
  3650  075F  2F61               	goto	u246_20
  3651  0760                     u246_21:
  3652  0760  2F62               	goto	i1l1962
  3653  0761                     u246_20:
  3654  0761  2F5A               	goto	i1l1958
  3655  0762                     i1l1962:
  3656  0762  0839               	movf	___fldiv@aexp,w
  3657  0763  1903               	btfsc	3,2
  3658  0764  2F66               	goto	u247_21
  3659  0765  2F67               	goto	u247_20
  3660  0766                     u247_21:
  3661  0766  2F98               	goto	i1l1972
  3662  0767                     u247_20:
  3663  0767                     i1l1964:
  3664  0767  3001               	movlw	1
  3665  0768  07A4               	addwf	___fldiv@b,f
  3666  0769  3000               	movlw	0
  3667  076A  1803               	skipnc
  3668  076B  3001               	movlw	1
  3669  076C  07A5               	addwf	___fldiv@b+1,f
  3670  076D  3000               	movlw	0
  3671  076E  1803               	skipnc
  3672  076F  3001               	movlw	1
  3673  0770  07A6               	addwf	___fldiv@b+2,f
  3674  0771  3000               	movlw	0
  3675  0772  1803               	skipnc
  3676  0773  3001               	movlw	1
  3677  0774  07A7               	addwf	___fldiv@b+3,f
  3678  0775                     i1l1966:
  3679  0775  1C27               	btfss	___fldiv@b+3,0
  3680  0776  2F78               	goto	u248_21
  3681  0777  2F79               	goto	u248_20
  3682  0778                     u248_21:
  3683  0778  2F98               	goto	i1l1972
  3684  0779                     u248_20:
  3685  0779                     i1l1968:
  3686  0779  0824               	movf	___fldiv@b,w
  3687  077A  00A8               	movwf	??___fldiv
  3688  077B  0825               	movf	___fldiv@b+1,w
  3689  077C  00A9               	movwf	??___fldiv+1
  3690  077D  0826               	movf	___fldiv@b+2,w
  3691  077E  00AA               	movwf	??___fldiv+2
  3692  077F  0827               	movf	___fldiv@b+3,w
  3693  0780  00AB               	movwf	??___fldiv+3
  3694  0781  3001               	movlw	1
  3695  0782  00AC               	movwf	??___fldiv+4
  3696  0783                     u249_25:
  3697  0783  0D2B               	rlf	??___fldiv+3,w
  3698  0784  0CAB               	rrf	??___fldiv+3,f
  3699  0785  0CAA               	rrf	??___fldiv+2,f
  3700  0786  0CA9               	rrf	??___fldiv+1,f
  3701  0787  0CA8               	rrf	??___fldiv,f
  3702  0788                     u249_20:
  3703  0788  0BAC               	decfsz	??___fldiv+4,f
  3704  0789  2F83               	goto	u249_25
  3705  078A  082B               	movf	??___fldiv+3,w
  3706  078B  00A7               	movwf	___fldiv@b+3
  3707  078C  082A               	movf	??___fldiv+2,w
  3708  078D  00A6               	movwf	___fldiv@b+2
  3709  078E  0829               	movf	??___fldiv+1,w
  3710  078F  00A5               	movwf	___fldiv@b+1
  3711  0790  0828               	movf	??___fldiv,w
  3712  0791  00A4               	movwf	___fldiv@b
  3713  0792                     i1l1970:
  3714  0792  3001               	movlw	1
  3715  0793  07B2               	addwf	___fldiv@new_exp,f
  3716  0794  1803               	skipnc
  3717  0795  0AB3               	incf	___fldiv@new_exp+1,f
  3718  0796  3000               	movlw	0
  3719  0797  07B3               	addwf	___fldiv@new_exp+1,f
  3720  0798                     i1l1972:
  3721  0798  0833               	movf	___fldiv@new_exp+1,w
  3722  0799  3A80               	xorlw	128
  3723  079A  00FF               	movwf	btemp+1
  3724  079B  3080               	movlw	128
  3725  079C  027F               	subwf	btemp+1,w
  3726  079D  1D03               	skipz
  3727  079E  2FA1               	goto	u250_25
  3728  079F  30FF               	movlw	255
  3729  07A0  0232               	subwf	___fldiv@new_exp,w
  3730  07A1                     u250_25:
  3731  07A1  1C03               	skipc
  3732  07A2  2FA4               	goto	u250_21
  3733  07A3  2FA5               	goto	u250_20
  3734  07A4                     u250_21:
  3735  07A4  2FB3               	goto	i1l1976
  3736  07A5                     u250_20:
  3737  07A5                     i1l1974:
  3738  07A5  30FF               	movlw	255
  3739  07A6  1283               	bcf	3,5	;RP0=0, select bank0
  3740  07A7  1303               	bcf	3,6	;RP1=0, select bank0
  3741  07A8  00B2               	movwf	___fldiv@new_exp
  3742  07A9  3000               	movlw	0
  3743  07AA  00B3               	movwf	___fldiv@new_exp+1
  3744  07AB  3000               	movlw	0
  3745  07AC  00A7               	movwf	___fldiv@b+3
  3746  07AD  3000               	movlw	0
  3747  07AE  00A6               	movwf	___fldiv@b+2
  3748  07AF  3000               	movlw	0
  3749  07B0  00A5               	movwf	___fldiv@b+1
  3750  07B1  3000               	movlw	0
  3751  07B2  00A4               	movwf	___fldiv@b
  3752  07B3                     i1l1976:
  3753  07B3  1283               	bcf	3,5	;RP0=0, select bank0
  3754  07B4  1303               	bcf	3,6	;RP1=0, select bank0
  3755  07B5  0833               	movf	___fldiv@new_exp+1,w
  3756  07B6  3A80               	xorlw	128
  3757  07B7  00FF               	movwf	btemp+1
  3758  07B8  3080               	movlw	128
  3759  07B9  027F               	subwf	btemp+1,w
  3760  07BA  1D03               	skipz
  3761  07BB  2FBE               	goto	u251_25
  3762  07BC  3001               	movlw	1
  3763  07BD  0232               	subwf	___fldiv@new_exp,w
  3764  07BE                     u251_25:
  3765  07BE  1803               	skipnc
  3766  07BF  2FC1               	goto	u251_21
  3767  07C0  2FC2               	goto	u251_20
  3768  07C1                     u251_21:
  3769  07C1  2FCF               	goto	i1l653
  3770  07C2                     u251_20:
  3771  07C2                     i1l1978:
  3772  07C2  1283               	bcf	3,5	;RP0=0, select bank0
  3773  07C3  1303               	bcf	3,6	;RP1=0, select bank0
  3774  07C4  01B2               	clrf	___fldiv@new_exp
  3775  07C5  01B3               	clrf	___fldiv@new_exp+1
  3776  07C6                     i1l1980:
  3777  07C6  3000               	movlw	0
  3778  07C7  00A7               	movwf	___fldiv@b+3
  3779  07C8  3000               	movlw	0
  3780  07C9  00A6               	movwf	___fldiv@b+2
  3781  07CA  3000               	movlw	0
  3782  07CB  00A5               	movwf	___fldiv@b+1
  3783  07CC  3000               	movlw	0
  3784  07CD  00A4               	movwf	___fldiv@b
  3785  07CE                     i1l1982:
  3786  07CE  01B1               	clrf	___fldiv@sign
  3787  07CF                     i1l653:
  3788  07CF  1283               	bcf	3,5	;RP0=0, select bank0
  3789  07D0  1303               	bcf	3,6	;RP1=0, select bank0
  3790  07D1  0832               	movf	___fldiv@new_exp,w
  3791  07D2  00A8               	movwf	??___fldiv
  3792  07D3  0828               	movf	??___fldiv,w
  3793  07D4  00B8               	movwf	___fldiv@bexp
  3794  07D5                     i1l1984:
  3795  07D5  1C38               	btfss	___fldiv@bexp,0
  3796  07D6  2FD8               	goto	u252_21
  3797  07D7  2FD9               	goto	u252_20
  3798  07D8                     u252_21:
  3799  07D8  2FDB               	goto	i1l1988
  3800  07D9                     u252_20:
  3801  07D9                     i1l1986:
  3802  07D9  17A6               	bsf	___fldiv@b+2,7
  3803  07DA  2FDF               	goto	i1l655
  3804  07DB                     i1l1988:
  3805  07DB  307F               	movlw	127
  3806  07DC  00A8               	movwf	??___fldiv
  3807  07DD  0828               	movf	??___fldiv,w
  3808  07DE  05A6               	andwf	___fldiv@b+2,f
  3809  07DF                     i1l655:
  3810  07DF  0838               	movf	___fldiv@bexp,w
  3811  07E0  00A8               	movwf	??___fldiv
  3812  07E1  1003               	clrc
  3813  07E2  0C28               	rrf	??___fldiv,w
  3814  07E3  00A9               	movwf	??___fldiv+1
  3815  07E4  0829               	movf	??___fldiv+1,w
  3816  07E5  00A7               	movwf	___fldiv@b+3
  3817  07E6  0831               	movf	___fldiv@sign,w
  3818  07E7  00A8               	movwf	??___fldiv
  3819  07E8  0828               	movf	??___fldiv,w
  3820  07E9  04A7               	iorwf	___fldiv@b+3,f
  3821  07EA  2E83               	goto	i1l1896
  3822  07EB                     i1l633:
  3823  07EB  0008               	return
  3824  07EC                     __end_of___fldiv:
  3825                           
  3826                           	psect	text11
  3827  0387                     __ptext11:	
  3828 ;; *************** function ___fladd *****************
  3829 ;; Defined at:
  3830 ;;		line 10 in file "C:\Program Files\Microchip\xc8\v2.35\pic\sources\c90\common\sprcadd.c"
  3831 ;; Parameters:    Size  Location     Type
  3832 ;;  b               4   52[BANK0 ] unsigned char 
  3833 ;;  a               4   56[BANK0 ] unsigned char 
  3834 ;; Auto vars:     Size  Location     Type
  3835 ;;  grs             1   71[BANK0 ] unsigned char 
  3836 ;;  bexp            1   70[BANK0 ] unsigned char 
  3837 ;;  aexp            1   69[BANK0 ] unsigned char 
  3838 ;;  signs           1   68[BANK0 ] unsigned char 
  3839 ;; Return value:  Size  Location     Type
  3840 ;;                  4   52[BANK0 ] unsigned char 
  3841 ;; Registers used:
  3842 ;;		wreg, status,2, status,0, btemp+1
  3843 ;; Tracked objects:
  3844 ;;		On entry : 0/0
  3845 ;;		On exit  : 0/0
  3846 ;;		Unchanged: 0/0
  3847 ;; Data sizes:     COMMON   BANK0   BANK1   BANK3   BANK2
  3848 ;;      Params:         0       8       0       0       0
  3849 ;;      Locals:         0       4       0       0       0
  3850 ;;      Temps:          0       8       0       0       0
  3851 ;;      Totals:         0      20       0       0       0
  3852 ;;Total ram usage:       20 bytes
  3853 ;; Hardware stack levels used: 1
  3854 ;; This function calls:
  3855 ;;		Nothing
  3856 ;; This function is called by:
  3857 ;;		_map
  3858 ;; This function uses a non-reentrant model
  3859 ;;
  3860                           
  3861  0387                     ___fladd:	
  3862                           ;psect for function ___fladd
  3863                           
  3864  0387                     i1l1658:	
  3865                           ;incstack = 0
  3866                           ; Regs used in ___fladd: [wreg+status,2+status,0+btemp+1]
  3867                           
  3868  0387  1283               	bcf	3,5	;RP0=0, select bank0
  3869  0388  1303               	bcf	3,6	;RP1=0, select bank0
  3870  0389  0857               	movf	___fladd@b+3,w
  3871  038A  3980               	andlw	128
  3872  038B  00DC               	movwf	??___fladd
  3873  038C  085C               	movf	??___fladd,w
  3874  038D  00E4               	movwf	___fladd@signs
  3875  038E                     i1l1660:
  3876  038E  0857               	movf	___fladd@b+3,w
  3877  038F  00DC               	movwf	??___fladd
  3878  0390  075C               	addwf	??___fladd,w
  3879  0391  00DD               	movwf	??___fladd+1
  3880  0392  085D               	movf	??___fladd+1,w
  3881  0393  00E6               	movwf	___fladd@bexp
  3882  0394                     i1l1662:
  3883  0394  1FD6               	btfss	___fladd@b+2,7
  3884  0395  2B97               	goto	u178_21
  3885  0396  2B98               	goto	u178_20
  3886  0397                     u178_21:
  3887  0397  2B99               	goto	i1l1666
  3888  0398                     u178_20:
  3889  0398                     i1l1664:
  3890  0398  1466               	bsf	___fladd@bexp,0
  3891  0399                     i1l1666:
  3892  0399  0866               	movf	___fladd@bexp,w
  3893  039A  1903               	btfsc	3,2
  3894  039B  2B9D               	goto	u179_21
  3895  039C  2B9E               	goto	u179_20
  3896  039D                     u179_21:
  3897  039D  2BAE               	goto	i1l1676
  3898  039E                     u179_20:
  3899  039E                     i1l1668:
  3900  039E  0A66               	incf	___fladd@bexp,w
  3901  039F  1D03               	btfss	3,2
  3902  03A0  2BA2               	goto	u180_21
  3903  03A1  2BA3               	goto	u180_20
  3904  03A2                     u180_21:
  3905  03A2  2BAB               	goto	i1l1672
  3906  03A3                     u180_20:
  3907  03A3                     i1l1670:
  3908  03A3  3000               	movlw	0
  3909  03A4  00D7               	movwf	___fladd@b+3
  3910  03A5  3000               	movlw	0
  3911  03A6  00D6               	movwf	___fladd@b+2
  3912  03A7  3000               	movlw	0
  3913  03A8  00D5               	movwf	___fladd@b+1
  3914  03A9  3000               	movlw	0
  3915  03AA  00D4               	movwf	___fladd@b
  3916  03AB                     i1l1672:
  3917  03AB  17D6               	bsf	___fladd@b+2,7
  3918  03AC                     i1l1674:
  3919  03AC  01D7               	clrf	___fladd@b+3
  3920  03AD  2BB6               	goto	i1l1678
  3921  03AE                     i1l1676:
  3922  03AE  3000               	movlw	0
  3923  03AF  00D7               	movwf	___fladd@b+3
  3924  03B0  3000               	movlw	0
  3925  03B1  00D6               	movwf	___fladd@b+2
  3926  03B2  3000               	movlw	0
  3927  03B3  00D5               	movwf	___fladd@b+1
  3928  03B4  3000               	movlw	0
  3929  03B5  00D4               	movwf	___fladd@b
  3930  03B6                     i1l1678:
  3931  03B6  085B               	movf	___fladd@a+3,w
  3932  03B7  3980               	andlw	128
  3933  03B8  00DC               	movwf	??___fladd
  3934  03B9  085C               	movf	??___fladd,w
  3935  03BA  00E5               	movwf	___fladd@aexp
  3936  03BB                     i1l1680:
  3937  03BB  0865               	movf	___fladd@aexp,w
  3938  03BC  0664               	xorwf	___fladd@signs,w
  3939  03BD  1903               	skipnz
  3940  03BE  2BC0               	goto	u181_21
  3941  03BF  2BC1               	goto	u181_20
  3942  03C0                     u181_21:
  3943  03C0  2BC2               	goto	i1l1684
  3944  03C1                     u181_20:
  3945  03C1                     i1l1682:
  3946  03C1  1764               	bsf	___fladd@signs,6
  3947  03C2                     i1l1684:
  3948  03C2  085B               	movf	___fladd@a+3,w
  3949  03C3  00DC               	movwf	??___fladd
  3950  03C4  075C               	addwf	??___fladd,w
  3951  03C5  00DD               	movwf	??___fladd+1
  3952  03C6  085D               	movf	??___fladd+1,w
  3953  03C7  00E5               	movwf	___fladd@aexp
  3954  03C8                     i1l1686:
  3955  03C8  1FDA               	btfss	___fladd@a+2,7
  3956  03C9  2BCB               	goto	u182_21
  3957  03CA  2BCC               	goto	u182_20
  3958  03CB                     u182_21:
  3959  03CB  2BCD               	goto	i1l1690
  3960  03CC                     u182_20:
  3961  03CC                     i1l1688:
  3962  03CC  1465               	bsf	___fladd@aexp,0
  3963  03CD                     i1l1690:
  3964  03CD  0865               	movf	___fladd@aexp,w
  3965  03CE  1903               	btfsc	3,2
  3966  03CF  2BD1               	goto	u183_21
  3967  03D0  2BD2               	goto	u183_20
  3968  03D1                     u183_21:
  3969  03D1  2BE2               	goto	i1l1700
  3970  03D2                     u183_20:
  3971  03D2                     i1l1692:
  3972  03D2  0A65               	incf	___fladd@aexp,w
  3973  03D3  1D03               	btfss	3,2
  3974  03D4  2BD6               	goto	u184_21
  3975  03D5  2BD7               	goto	u184_20
  3976  03D6                     u184_21:
  3977  03D6  2BDF               	goto	i1l1696
  3978  03D7                     u184_20:
  3979  03D7                     i1l1694:
  3980  03D7  3000               	movlw	0
  3981  03D8  00DB               	movwf	___fladd@a+3
  3982  03D9  3000               	movlw	0
  3983  03DA  00DA               	movwf	___fladd@a+2
  3984  03DB  3000               	movlw	0
  3985  03DC  00D9               	movwf	___fladd@a+1
  3986  03DD  3000               	movlw	0
  3987  03DE  00D8               	movwf	___fladd@a
  3988  03DF                     i1l1696:
  3989  03DF  17DA               	bsf	___fladd@a+2,7
  3990  03E0                     i1l1698:
  3991  03E0  01DB               	clrf	___fladd@a+3
  3992  03E1  2BEA               	goto	i1l575
  3993  03E2                     i1l1700:
  3994  03E2  3000               	movlw	0
  3995  03E3  00DB               	movwf	___fladd@a+3
  3996  03E4  3000               	movlw	0
  3997  03E5  00DA               	movwf	___fladd@a+2
  3998  03E6  3000               	movlw	0
  3999  03E7  00D9               	movwf	___fladd@a+1
  4000  03E8  3000               	movlw	0
  4001  03E9  00D8               	movwf	___fladd@a
  4002  03EA                     i1l575:
  4003  03EA  0866               	movf	___fladd@bexp,w
  4004  03EB  0265               	subwf	___fladd@aexp,w
  4005  03EC  1803               	skipnc
  4006  03ED  2BEF               	goto	u185_21
  4007  03EE  2BF0               	goto	u185_20
  4008  03EF                     u185_21:
  4009  03EF  2C34               	goto	i1l1736
  4010  03F0                     u185_20:
  4011  03F0                     i1l1702:
  4012  03F0  1F64               	btfss	___fladd@signs,6
  4013  03F1  2BF3               	goto	u186_21
  4014  03F2  2BF4               	goto	u186_20
  4015  03F3                     u186_21:
  4016  03F3  2BF8               	goto	i1l1706
  4017  03F4                     u186_20:
  4018  03F4                     i1l1704:
  4019  03F4  3080               	movlw	128
  4020  03F5  00DC               	movwf	??___fladd
  4021  03F6  085C               	movf	??___fladd,w
  4022  03F7  06E4               	xorwf	___fladd@signs,f
  4023  03F8                     i1l1706:
  4024  03F8  0866               	movf	___fladd@bexp,w
  4025  03F9  00DC               	movwf	??___fladd
  4026  03FA  085C               	movf	??___fladd,w
  4027  03FB  00E7               	movwf	___fladd@grs
  4028  03FC                     i1l1708:
  4029  03FC  0865               	movf	___fladd@aexp,w
  4030  03FD  00DC               	movwf	??___fladd
  4031  03FE  085C               	movf	??___fladd,w
  4032  03FF  00E6               	movwf	___fladd@bexp
  4033  0400                     i1l1710:
  4034  0400  0867               	movf	___fladd@grs,w
  4035  0401  00DC               	movwf	??___fladd
  4036  0402  085C               	movf	??___fladd,w
  4037  0403  00E5               	movwf	___fladd@aexp
  4038  0404                     i1l1712:
  4039  0404  0854               	movf	___fladd@b,w
  4040  0405  00DC               	movwf	??___fladd
  4041  0406  085C               	movf	??___fladd,w
  4042  0407  00E7               	movwf	___fladd@grs
  4043  0408                     i1l1714:
  4044  0408  0858               	movf	___fladd@a,w
  4045  0409  00DC               	movwf	??___fladd
  4046  040A  085C               	movf	??___fladd,w
  4047  040B  00D4               	movwf	___fladd@b
  4048  040C                     i1l1716:
  4049  040C  0867               	movf	___fladd@grs,w
  4050  040D  00DC               	movwf	??___fladd
  4051  040E  085C               	movf	??___fladd,w
  4052  040F  00D8               	movwf	___fladd@a
  4053  0410                     i1l1718:
  4054  0410  0855               	movf	___fladd@b+1,w
  4055  0411  00DC               	movwf	??___fladd
  4056  0412  085C               	movf	??___fladd,w
  4057  0413  00E7               	movwf	___fladd@grs
  4058  0414                     i1l1720:
  4059  0414  0859               	movf	___fladd@a+1,w
  4060  0415  00DC               	movwf	??___fladd
  4061  0416  085C               	movf	??___fladd,w
  4062  0417  00D5               	movwf	___fladd@b+1
  4063  0418                     i1l1722:
  4064  0418  0867               	movf	___fladd@grs,w
  4065  0419  00DC               	movwf	??___fladd
  4066  041A  085C               	movf	??___fladd,w
  4067  041B  00D9               	movwf	___fladd@a+1
  4068  041C                     i1l1724:
  4069  041C  0856               	movf	___fladd@b+2,w
  4070  041D  00DC               	movwf	??___fladd
  4071  041E  085C               	movf	??___fladd,w
  4072  041F  00E7               	movwf	___fladd@grs
  4073  0420                     i1l1726:
  4074  0420  085A               	movf	___fladd@a+2,w
  4075  0421  00DC               	movwf	??___fladd
  4076  0422  085C               	movf	??___fladd,w
  4077  0423  00D6               	movwf	___fladd@b+2
  4078  0424                     i1l1728:
  4079  0424  0867               	movf	___fladd@grs,w
  4080  0425  00DC               	movwf	??___fladd
  4081  0426  085C               	movf	??___fladd,w
  4082  0427  00DA               	movwf	___fladd@a+2
  4083  0428                     i1l1730:
  4084  0428  0857               	movf	___fladd@b+3,w
  4085  0429  00DC               	movwf	??___fladd
  4086  042A  085C               	movf	??___fladd,w
  4087  042B  00E7               	movwf	___fladd@grs
  4088  042C                     i1l1732:
  4089  042C  085B               	movf	___fladd@a+3,w
  4090  042D  00DC               	movwf	??___fladd
  4091  042E  085C               	movf	??___fladd,w
  4092  042F  00D7               	movwf	___fladd@b+3
  4093  0430                     i1l1734:
  4094  0430  0867               	movf	___fladd@grs,w
  4095  0431  00DC               	movwf	??___fladd
  4096  0432  085C               	movf	??___fladd,w
  4097  0433  00DB               	movwf	___fladd@a+3
  4098  0434                     i1l1736:
  4099  0434  01E7               	clrf	___fladd@grs
  4100  0435                     i1l1738:
  4101  0435  0865               	movf	___fladd@aexp,w
  4102  0436  00DC               	movwf	??___fladd
  4103  0437  01DD               	clrf	??___fladd+1
  4104  0438  085D               	movf	??___fladd+1,w
  4105  0439  00DF               	movwf	??___fladd+3
  4106  043A  0866               	movf	___fladd@bexp,w
  4107  043B  025C               	subwf	??___fladd,w
  4108  043C  00DE               	movwf	??___fladd+2
  4109  043D  1C03               	skipc
  4110  043E  03DF               	decf	??___fladd+3,f
  4111  043F  085F               	movf	??___fladd+3,w
  4112  0440  3A80               	xorlw	128
  4113  0441  00FF               	movwf	btemp+1
  4114  0442  3080               	movlw	128
  4115  0443  027F               	subwf	btemp+1,w
  4116  0444  1D03               	skipz
  4117  0445  2C48               	goto	u187_25
  4118  0446  301A               	movlw	26
  4119  0447  025E               	subwf	??___fladd+2,w
  4120  0448                     u187_25:
  4121  0448  1C03               	skipc
  4122  0449  2C4B               	goto	u187_21
  4123  044A  2C4C               	goto	u187_20
  4124  044B                     u187_21:
  4125  044B  2C89               	goto	i1l1754
  4126  044C                     u187_20:
  4127  044C                     i1l1740:
  4128  044C  1283               	bcf	3,5	;RP0=0, select bank0
  4129  044D  1303               	bcf	3,6	;RP1=0, select bank0
  4130  044E  0857               	movf	___fladd@b+3,w
  4131  044F  0456               	iorwf	___fladd@b+2,w
  4132  0450  0455               	iorwf	___fladd@b+1,w
  4133  0451  0454               	iorwf	___fladd@b,w
  4134  0452  1D03               	skipz
  4135  0453  2C55               	goto	u188_21
  4136  0454  2C57               	goto	u188_20
  4137  0455                     u188_21:
  4138  0455  3001               	movlw	1
  4139  0456  2C58               	goto	u189_20
  4140  0457                     u188_20:
  4141  0457  3000               	movlw	0
  4142  0458                     u189_20:
  4143  0458  00DC               	movwf	??___fladd
  4144  0459  085C               	movf	??___fladd,w
  4145  045A  00E7               	movwf	___fladd@grs
  4146  045B  3000               	movlw	0
  4147  045C  00D7               	movwf	___fladd@b+3
  4148  045D  3000               	movlw	0
  4149  045E  00D6               	movwf	___fladd@b+2
  4150  045F  3000               	movlw	0
  4151  0460  00D5               	movwf	___fladd@b+1
  4152  0461  3000               	movlw	0
  4153  0462  00D4               	movwf	___fladd@b
  4154  0463  0865               	movf	___fladd@aexp,w
  4155  0464  00DC               	movwf	??___fladd
  4156  0465  085C               	movf	??___fladd,w
  4157  0466  00E6               	movwf	___fladd@bexp
  4158  0467  2C91               	goto	i1l579
  4159  0468                     i1l581:
  4160  0468  1C67               	btfss	___fladd@grs,0
  4161  0469  2C6B               	goto	u190_21
  4162  046A  2C6C               	goto	u190_20
  4163  046B                     u190_21:
  4164  046B  2C75               	goto	i1l1744
  4165  046C                     u190_20:
  4166  046C                     i1l1742:
  4167  046C  0867               	movf	___fladd@grs,w
  4168  046D  00DC               	movwf	??___fladd
  4169  046E  1003               	clrc
  4170  046F  0C5C               	rrf	??___fladd,w
  4171  0470  3801               	iorlw	1
  4172  0471  00DD               	movwf	??___fladd+1
  4173  0472  085D               	movf	??___fladd+1,w
  4174  0473  00E7               	movwf	___fladd@grs
  4175  0474  2C77               	goto	i1l1746
  4176  0475                     i1l1744:
  4177  0475  1003               	clrc
  4178  0476  0CE7               	rrf	___fladd@grs,f
  4179  0477                     i1l1746:
  4180  0477  1C54               	btfss	___fladd@b,0
  4181  0478  2C7A               	goto	u191_21
  4182  0479  2C7B               	goto	u191_20
  4183  047A                     u191_21:
  4184  047A  2C7C               	goto	i1l1750
  4185  047B                     u191_20:
  4186  047B                     i1l1748:
  4187  047B  17E7               	bsf	___fladd@grs,7
  4188  047C                     i1l1750:
  4189  047C  3001               	movlw	1
  4190  047D  00DC               	movwf	??___fladd
  4191  047E                     u192_25:
  4192  047E  0D57               	rlf	___fladd@b+3,w
  4193  047F  0CD7               	rrf	___fladd@b+3,f
  4194  0480  0CD6               	rrf	___fladd@b+2,f
  4195  0481  0CD5               	rrf	___fladd@b+1,f
  4196  0482  0CD4               	rrf	___fladd@b,f
  4197  0483  0BDC               	decfsz	??___fladd& (0+127),f
  4198  0484  2C7E               	goto	u192_25
  4199  0485                     i1l1752:
  4200  0485  3001               	movlw	1
  4201  0486  00DC               	movwf	??___fladd
  4202  0487  085C               	movf	??___fladd,w
  4203  0488  07E6               	addwf	___fladd@bexp,f
  4204  0489                     i1l1754:
  4205  0489  1283               	bcf	3,5	;RP0=0, select bank0
  4206  048A  1303               	bcf	3,6	;RP1=0, select bank0
  4207  048B  0865               	movf	___fladd@aexp,w
  4208  048C  0266               	subwf	___fladd@bexp,w
  4209  048D  1C03               	skipc
  4210  048E  2C90               	goto	u193_21
  4211  048F  2C91               	goto	u193_20
  4212  0490                     u193_21:
  4213  0490  2C68               	goto	i1l581
  4214  0491                     u193_20:
  4215  0491                     i1l579:
  4216  0491  1B64               	btfsc	___fladd@signs,6
  4217  0492  2C94               	goto	u194_21
  4218  0493  2C95               	goto	u194_20
  4219  0494                     u194_21:
  4220  0494  2CE0               	goto	i1l1780
  4221  0495                     u194_20:
  4222  0495                     i1l1756:
  4223  0495  0866               	movf	___fladd@bexp,w
  4224  0496  1D03               	btfss	3,2
  4225  0497  2C99               	goto	u195_21
  4226  0498  2C9A               	goto	u195_20
  4227  0499                     u195_21:
  4228  0499  2CA3               	goto	i1l1762
  4229  049A                     u195_20:
  4230  049A                     i1l1758:
  4231  049A  3000               	movlw	0
  4232  049B  00D7               	movwf	?___fladd+3
  4233  049C  3000               	movlw	0
  4234  049D  00D6               	movwf	?___fladd+2
  4235  049E  3000               	movlw	0
  4236  049F  00D5               	movwf	?___fladd+1
  4237  04A0  3000               	movlw	0
  4238  04A1  00D4               	movwf	?___fladd
  4239  04A2  2E0E               	goto	i1l588
  4240  04A3                     i1l1762:
  4241  04A3  0858               	movf	___fladd@a,w
  4242  04A4  07D4               	addwf	___fladd@b,f
  4243  04A5  0859               	movf	___fladd@a+1,w
  4244  04A6  1103               	clrz
  4245  04A7  1803               	skipnc
  4246  04A8  3E01               	addlw	1
  4247  04A9  1903               	skipnz
  4248  04AA  2CAC               	goto	u196_21
  4249  04AB  07D5               	addwf	___fladd@b+1,f
  4250  04AC                     u196_21:
  4251  04AC  085A               	movf	___fladd@a+2,w
  4252  04AD  1103               	clrz
  4253  04AE  1803               	skipnc
  4254  04AF  3E01               	addlw	1
  4255  04B0  1903               	skipnz
  4256  04B1  2CB3               	goto	u196_22
  4257  04B2  07D6               	addwf	___fladd@b+2,f
  4258  04B3                     u196_22:
  4259  04B3  085B               	movf	___fladd@a+3,w
  4260  04B4  1103               	clrz
  4261  04B5  1803               	skipnc
  4262  04B6  3E01               	addlw	1
  4263  04B7  1903               	skipnz
  4264  04B8  2CBA               	goto	u196_23
  4265  04B9  07D7               	addwf	___fladd@b+3,f
  4266  04BA                     u196_23:
  4267  04BA                     i1l1764:
  4268  04BA  1C57               	btfss	___fladd@b+3,0
  4269  04BB  2CBD               	goto	u197_21
  4270  04BC  2CBE               	goto	u197_20
  4271  04BD                     u197_21:
  4272  04BD  2D94               	goto	i1l1814
  4273  04BE                     u197_20:
  4274  04BE                     i1l1766:
  4275  04BE  1C67               	btfss	___fladd@grs,0
  4276  04BF  2CC1               	goto	u198_21
  4277  04C0  2CC2               	goto	u198_20
  4278  04C1                     u198_21:
  4279  04C1  2CCB               	goto	i1l1770
  4280  04C2                     u198_20:
  4281  04C2                     i1l1768:
  4282  04C2  0867               	movf	___fladd@grs,w
  4283  04C3  00DC               	movwf	??___fladd
  4284  04C4  1003               	clrc
  4285  04C5  0C5C               	rrf	??___fladd,w
  4286  04C6  3801               	iorlw	1
  4287  04C7  00DD               	movwf	??___fladd+1
  4288  04C8  085D               	movf	??___fladd+1,w
  4289  04C9  00E7               	movwf	___fladd@grs
  4290  04CA  2CCD               	goto	i1l1772
  4291  04CB                     i1l1770:
  4292  04CB  1003               	clrc
  4293  04CC  0CE7               	rrf	___fladd@grs,f
  4294  04CD                     i1l1772:
  4295  04CD  1C54               	btfss	___fladd@b,0
  4296  04CE  2CD0               	goto	u199_21
  4297  04CF  2CD1               	goto	u199_20
  4298  04D0                     u199_21:
  4299  04D0  2CD2               	goto	i1l1776
  4300  04D1                     u199_20:
  4301  04D1                     i1l1774:
  4302  04D1  17E7               	bsf	___fladd@grs,7
  4303  04D2                     i1l1776:
  4304  04D2  3001               	movlw	1
  4305  04D3  00DC               	movwf	??___fladd
  4306  04D4                     u200_25:
  4307  04D4  0D57               	rlf	___fladd@b+3,w
  4308  04D5  0CD7               	rrf	___fladd@b+3,f
  4309  04D6  0CD6               	rrf	___fladd@b+2,f
  4310  04D7  0CD5               	rrf	___fladd@b+1,f
  4311  04D8  0CD4               	rrf	___fladd@b,f
  4312  04D9  0BDC               	decfsz	??___fladd& (0+127),f
  4313  04DA  2CD4               	goto	u200_25
  4314  04DB                     i1l1778:
  4315  04DB  3001               	movlw	1
  4316  04DC  00DC               	movwf	??___fladd
  4317  04DD  085C               	movf	??___fladd,w
  4318  04DE  07E6               	addwf	___fladd@bexp,f
  4319  04DF  2D94               	goto	i1l1814
  4320  04E0                     i1l1780:
  4321  04E0  0857               	movf	___fladd@b+3,w
  4322  04E1  3A80               	xorlw	128
  4323  04E2  00FF               	movwf	btemp+1
  4324  04E3  085B               	movf	___fladd@a+3,w
  4325  04E4  3A80               	xorlw	128
  4326  04E5  027F               	subwf	btemp+1,w
  4327  04E6  1D03               	skipz
  4328  04E7  2CF2               	goto	u201_23
  4329  04E8  085A               	movf	___fladd@a+2,w
  4330  04E9  0256               	subwf	___fladd@b+2,w
  4331  04EA  1D03               	skipz
  4332  04EB  2CF2               	goto	u201_23
  4333  04EC  0859               	movf	___fladd@a+1,w
  4334  04ED  0255               	subwf	___fladd@b+1,w
  4335  04EE  1D03               	skipz
  4336  04EF  2CF2               	goto	u201_23
  4337  04F0  0858               	movf	___fladd@a,w
  4338  04F1  0254               	subwf	___fladd@b,w
  4339  04F2                     u201_23:
  4340  04F2  1803               	skipnc
  4341  04F3  2CF5               	goto	u201_21
  4342  04F4  2CF6               	goto	u201_20
  4343  04F5                     u201_21:
  4344  04F5  2D4E               	goto	i1l1790
  4345  04F6                     u201_20:
  4346  04F6                     i1l1782:
  4347  04F6  30FF               	movlw	255
  4348  04F7  00DC               	movwf	??___fladd
  4349  04F8  30FF               	movlw	255
  4350  04F9  00DD               	movwf	??___fladd+1
  4351  04FA  30FF               	movlw	255
  4352  04FB  00DE               	movwf	??___fladd+2
  4353  04FC  30FF               	movlw	255
  4354  04FD  00DF               	movwf	??___fladd+3
  4355  04FE  0858               	movf	___fladd@a,w
  4356  04FF  00E0               	movwf	??___fladd+4
  4357  0500  0859               	movf	___fladd@a+1,w
  4358  0501  00E1               	movwf	??___fladd+5
  4359  0502  085A               	movf	___fladd@a+2,w
  4360  0503  00E2               	movwf	??___fladd+6
  4361  0504  085B               	movf	___fladd@a+3,w
  4362  0505  00E3               	movwf	??___fladd+7
  4363  0506  0854               	movf	___fladd@b,w
  4364  0507  02E0               	subwf	??___fladd+4,f
  4365  0508  0855               	movf	___fladd@b+1,w
  4366  0509  1C03               	skipc
  4367  050A  0F55               	incfsz	___fladd@b+1,w
  4368  050B  2D0D               	goto	u202_21
  4369  050C  2D0E               	goto	u202_22
  4370  050D                     u202_21:
  4371  050D  02E1               	subwf	??___fladd+5,f
  4372  050E                     u202_22:
  4373  050E  0856               	movf	___fladd@b+2,w
  4374  050F  1C03               	skipc
  4375  0510  0F56               	incfsz	___fladd@b+2,w
  4376  0511  2D13               	goto	u202_23
  4377  0512  2D14               	goto	u202_24
  4378  0513                     u202_23:
  4379  0513  02E2               	subwf	??___fladd+6,f
  4380  0514                     u202_24:
  4381  0514  0857               	movf	___fladd@b+3,w
  4382  0515  1C03               	skipc
  4383  0516  0F57               	incfsz	___fladd@b+3,w
  4384  0517  2D19               	goto	u202_25
  4385  0518  2D1A               	goto	u202_26
  4386  0519                     u202_25:
  4387  0519  02E3               	subwf	??___fladd+7,f
  4388  051A                     u202_26:
  4389  051A  0860               	movf	??___fladd+4,w
  4390  051B  07DC               	addwf	??___fladd,f
  4391  051C  0861               	movf	??___fladd+5,w
  4392  051D  1803               	skipnc
  4393  051E  0F61               	incfsz	??___fladd+5,w
  4394  051F  2D21               	goto	u203_20
  4395  0520  2D22               	goto	u203_21
  4396  0521                     u203_20:
  4397  0521  07DD               	addwf	??___fladd+1,f
  4398  0522                     u203_21:
  4399  0522  0862               	movf	??___fladd+6,w
  4400  0523  1803               	skipnc
  4401  0524  0F62               	incfsz	??___fladd+6,w
  4402  0525  2D27               	goto	u203_22
  4403  0526  2D28               	goto	u203_23
  4404  0527                     u203_22:
  4405  0527  07DE               	addwf	??___fladd+2,f
  4406  0528                     u203_23:
  4407  0528  0863               	movf	??___fladd+7,w
  4408  0529  1803               	skipnc
  4409  052A  0A63               	incf	??___fladd+7,w
  4410  052B  07DF               	addwf	??___fladd+3,f
  4411  052C  085F               	movf	??___fladd+3,w
  4412  052D  00D7               	movwf	___fladd@b+3
  4413  052E  085E               	movf	??___fladd+2,w
  4414  052F  00D6               	movwf	___fladd@b+2
  4415  0530  085D               	movf	??___fladd+1,w
  4416  0531  00D5               	movwf	___fladd@b+1
  4417  0532  085C               	movf	??___fladd,w
  4418  0533  00D4               	movwf	___fladd@b
  4419  0534                     i1l1784:
  4420  0534  3080               	movlw	128
  4421  0535  00DC               	movwf	??___fladd
  4422  0536  085C               	movf	??___fladd,w
  4423  0537  06E4               	xorwf	___fladd@signs,f
  4424  0538  09E7               	comf	___fladd@grs,f
  4425  0539  0AE7               	incf	___fladd@grs,f
  4426  053A                     i1l1786:
  4427  053A  0867               	movf	___fladd@grs,w
  4428  053B  1D03               	btfss	3,2
  4429  053C  2D3E               	goto	u204_21
  4430  053D  2D3F               	goto	u204_20
  4431  053E                     u204_21:
  4432  053E  2D5C               	goto	i1l596
  4433  053F                     u204_20:
  4434  053F                     i1l1788:
  4435  053F  3001               	movlw	1
  4436  0540  07D4               	addwf	___fladd@b,f
  4437  0541  3000               	movlw	0
  4438  0542  1803               	skipnc
  4439  0543  3001               	movlw	1
  4440  0544  07D5               	addwf	___fladd@b+1,f
  4441  0545  3000               	movlw	0
  4442  0546  1803               	skipnc
  4443  0547  3001               	movlw	1
  4444  0548  07D6               	addwf	___fladd@b+2,f
  4445  0549  3000               	movlw	0
  4446  054A  1803               	skipnc
  4447  054B  3001               	movlw	1
  4448  054C  07D7               	addwf	___fladd@b+3,f
  4449  054D  2D5C               	goto	i1l596
  4450  054E                     i1l1790:
  4451  054E  0858               	movf	___fladd@a,w
  4452  054F  02D4               	subwf	___fladd@b,f
  4453  0550  0859               	movf	___fladd@a+1,w
  4454  0551  1C03               	skipc
  4455  0552  0F59               	incfsz	___fladd@a+1,w
  4456  0553  02D5               	subwf	___fladd@b+1,f
  4457  0554  085A               	movf	___fladd@a+2,w
  4458  0555  1C03               	skipc
  4459  0556  0F5A               	incfsz	___fladd@a+2,w
  4460  0557  02D6               	subwf	___fladd@b+2,f
  4461  0558  085B               	movf	___fladd@a+3,w
  4462  0559  1C03               	skipc
  4463  055A  0F5B               	incfsz	___fladd@a+3,w
  4464  055B  02D7               	subwf	___fladd@b+3,f
  4465  055C                     i1l596:
  4466  055C  0857               	movf	___fladd@b+3,w
  4467  055D  0456               	iorwf	___fladd@b+2,w
  4468  055E  0455               	iorwf	___fladd@b+1,w
  4469  055F  0454               	iorwf	___fladd@b,w
  4470  0560  1D03               	skipz
  4471  0561  2D63               	goto	u205_21
  4472  0562  2D64               	goto	u205_20
  4473  0563                     u205_21:
  4474  0563  2D90               	goto	i1l1812
  4475  0564                     u205_20:
  4476  0564                     i1l1792:
  4477  0564  0867               	movf	___fladd@grs,w
  4478  0565  1D03               	btfss	3,2
  4479  0566  2D68               	goto	u206_21
  4480  0567  2D69               	goto	u206_20
  4481  0568                     u206_21:
  4482  0568  2D90               	goto	i1l1812
  4483  0569                     u206_20:
  4484  0569                     i1l1794:
  4485  0569  3000               	movlw	0
  4486  056A  00D7               	movwf	?___fladd+3
  4487  056B  3000               	movlw	0
  4488  056C  00D6               	movwf	?___fladd+2
  4489  056D  3000               	movlw	0
  4490  056E  00D5               	movwf	?___fladd+1
  4491  056F  3000               	movlw	0
  4492  0570  00D4               	movwf	?___fladd
  4493  0571  2E0E               	goto	i1l588
  4494  0572                     i1l1798:
  4495  0572  3001               	movlw	1
  4496  0573  00DC               	movwf	??___fladd
  4497  0574                     u207_25:
  4498  0574  1003               	clrc
  4499  0575  0DD4               	rlf	___fladd@b,f
  4500  0576  0DD5               	rlf	___fladd@b+1,f
  4501  0577  0DD6               	rlf	___fladd@b+2,f
  4502  0578  0DD7               	rlf	___fladd@b+3,f
  4503  0579  0BDC               	decfsz	??___fladd,f
  4504  057A  2D74               	goto	u207_25
  4505  057B                     i1l1800:
  4506  057B  1FE7               	btfss	___fladd@grs,7
  4507  057C  2D7E               	goto	u208_21
  4508  057D  2D7F               	goto	u208_20
  4509  057E                     u208_21:
  4510  057E  2D80               	goto	i1l600
  4511  057F                     u208_20:
  4512  057F                     i1l1802:
  4513  057F  1454               	bsf	___fladd@b,0
  4514  0580                     i1l600:
  4515  0580  1C67               	btfss	___fladd@grs,0
  4516  0581  2D83               	goto	u209_21
  4517  0582  2D84               	goto	u209_20
  4518  0583                     u209_21:
  4519  0583  2D87               	goto	i1l1806
  4520  0584                     u209_20:
  4521  0584                     i1l1804:
  4522  0584  1403               	setc
  4523  0585  0DE7               	rlf	___fladd@grs,f
  4524  0586  2D89               	goto	i1l1808
  4525  0587                     i1l1806:
  4526  0587  1003               	clrc
  4527  0588  0DE7               	rlf	___fladd@grs,f
  4528  0589                     i1l1808:
  4529  0589  0866               	movf	___fladd@bexp,w
  4530  058A  1903               	btfsc	3,2
  4531  058B  2D8D               	goto	u210_21
  4532  058C  2D8E               	goto	u210_20
  4533  058D                     u210_21:
  4534  058D  2D90               	goto	i1l1812
  4535  058E                     u210_20:
  4536  058E                     i1l1810:
  4537  058E  3001               	movlw	1
  4538  058F  02E6               	subwf	___fladd@bexp,f
  4539  0590                     i1l1812:
  4540  0590  1FD6               	btfss	___fladd@b+2,7
  4541  0591  2D93               	goto	u211_21
  4542  0592  2D94               	goto	u211_20
  4543  0593                     u211_21:
  4544  0593  2D72               	goto	i1l1798
  4545  0594                     u211_20:
  4546  0594                     i1l1814:
  4547  0594  01E5               	clrf	___fladd@aexp
  4548  0595                     i1l1816:
  4549  0595  1FE7               	btfss	___fladd@grs,7
  4550  0596  2D98               	goto	u212_21
  4551  0597  2D99               	goto	u212_20
  4552  0598                     u212_21:
  4553  0598  2DA7               	goto	i1l1824
  4554  0599                     u212_20:
  4555  0599                     i1l1818:
  4556  0599  0867               	movf	___fladd@grs,w
  4557  059A  397F               	andlw	127
  4558  059B  1903               	btfsc	3,2
  4559  059C  2D9E               	goto	u213_21
  4560  059D  2D9F               	goto	u213_20
  4561  059E                     u213_21:
  4562  059E  2DA2               	goto	i1l606
  4563  059F                     u213_20:
  4564  059F                     i1l1820:
  4565  059F  01E5               	clrf	___fladd@aexp
  4566  05A0  0AE5               	incf	___fladd@aexp,f
  4567  05A1  2DA7               	goto	i1l1824
  4568  05A2                     i1l606:
  4569  05A2  1C54               	btfss	___fladd@b,0
  4570  05A3  2DA5               	goto	u214_21
  4571  05A4  2DA6               	goto	u214_20
  4572  05A5                     u214_21:
  4573  05A5  2DA7               	goto	i1l1824
  4574  05A6                     u214_20:
  4575  05A6  2D9F               	goto	i1l1820
  4576  05A7                     i1l1824:
  4577  05A7  0865               	movf	___fladd@aexp,w
  4578  05A8  1903               	btfsc	3,2
  4579  05A9  2DAB               	goto	u215_21
  4580  05AA  2DAC               	goto	u215_20
  4581  05AB                     u215_21:
  4582  05AB  2DE0               	goto	i1l609
  4583  05AC                     u215_20:
  4584  05AC                     i1l1826:
  4585  05AC  3001               	movlw	1
  4586  05AD  07D4               	addwf	___fladd@b,f
  4587  05AE  3000               	movlw	0
  4588  05AF  1803               	skipnc
  4589  05B0  3001               	movlw	1
  4590  05B1  07D5               	addwf	___fladd@b+1,f
  4591  05B2  3000               	movlw	0
  4592  05B3  1803               	skipnc
  4593  05B4  3001               	movlw	1
  4594  05B5  07D6               	addwf	___fladd@b+2,f
  4595  05B6  3000               	movlw	0
  4596  05B7  1803               	skipnc
  4597  05B8  3001               	movlw	1
  4598  05B9  07D7               	addwf	___fladd@b+3,f
  4599  05BA                     i1l1828:
  4600  05BA  1C57               	btfss	___fladd@b+3,0
  4601  05BB  2DBD               	goto	u216_21
  4602  05BC  2DBE               	goto	u216_20
  4603  05BD                     u216_21:
  4604  05BD  2DE0               	goto	i1l609
  4605  05BE                     u216_20:
  4606  05BE                     i1l1830:
  4607  05BE  0854               	movf	___fladd@b,w
  4608  05BF  00DC               	movwf	??___fladd
  4609  05C0  0855               	movf	___fladd@b+1,w
  4610  05C1  00DD               	movwf	??___fladd+1
  4611  05C2  0856               	movf	___fladd@b+2,w
  4612  05C3  00DE               	movwf	??___fladd+2
  4613  05C4  0857               	movf	___fladd@b+3,w
  4614  05C5  00DF               	movwf	??___fladd+3
  4615  05C6  3001               	movlw	1
  4616  05C7  00E0               	movwf	??___fladd+4
  4617  05C8                     u217_25:
  4618  05C8  0D5F               	rlf	??___fladd+3,w
  4619  05C9  0CDF               	rrf	??___fladd+3,f
  4620  05CA  0CDE               	rrf	??___fladd+2,f
  4621  05CB  0CDD               	rrf	??___fladd+1,f
  4622  05CC  0CDC               	rrf	??___fladd,f
  4623  05CD                     u217_20:
  4624  05CD  0BE0               	decfsz	??___fladd+4,f
  4625  05CE  2DC8               	goto	u217_25
  4626  05CF  085F               	movf	??___fladd+3,w
  4627  05D0  00D7               	movwf	___fladd@b+3
  4628  05D1  085E               	movf	??___fladd+2,w
  4629  05D2  00D6               	movwf	___fladd@b+2
  4630  05D3  085D               	movf	??___fladd+1,w
  4631  05D4  00D5               	movwf	___fladd@b+1
  4632  05D5  085C               	movf	??___fladd,w
  4633  05D6  00D4               	movwf	___fladd@b
  4634  05D7  0A66               	incf	___fladd@bexp,w
  4635  05D8  1903               	btfsc	3,2
  4636  05D9  2DDB               	goto	u218_21
  4637  05DA  2DDC               	goto	u218_20
  4638  05DB                     u218_21:
  4639  05DB  2DE0               	goto	i1l609
  4640  05DC                     u218_20:
  4641  05DC                     i1l1832:
  4642  05DC  3001               	movlw	1
  4643  05DD  00DC               	movwf	??___fladd
  4644  05DE  085C               	movf	??___fladd,w
  4645  05DF  07E6               	addwf	___fladd@bexp,f
  4646  05E0                     i1l609:
  4647  05E0  0A66               	incf	___fladd@bexp,w
  4648  05E1  1903               	btfsc	3,2
  4649  05E2  2DE4               	goto	u219_21
  4650  05E3  2DE5               	goto	u219_20
  4651  05E4                     u219_21:
  4652  05E4  2DEA               	goto	i1l1836
  4653  05E5                     u219_20:
  4654  05E5                     i1l1834:
  4655  05E5  0866               	movf	___fladd@bexp,w
  4656  05E6  1D03               	btfss	3,2
  4657  05E7  2DE9               	goto	u220_21
  4658  05E8  2DEA               	goto	u220_20
  4659  05E9                     u220_21:
  4660  05E9  2DF8               	goto	i1l1842
  4661  05EA                     u220_20:
  4662  05EA                     i1l1836:
  4663  05EA  3000               	movlw	0
  4664  05EB  00D7               	movwf	___fladd@b+3
  4665  05EC  3000               	movlw	0
  4666  05ED  00D6               	movwf	___fladd@b+2
  4667  05EE  3000               	movlw	0
  4668  05EF  00D5               	movwf	___fladd@b+1
  4669  05F0  3000               	movlw	0
  4670  05F1  00D4               	movwf	___fladd@b
  4671  05F2                     i1l1838:
  4672  05F2  0866               	movf	___fladd@bexp,w
  4673  05F3  1D03               	btfss	3,2
  4674  05F4  2DF6               	goto	u221_21
  4675  05F5  2DF7               	goto	u221_20
  4676  05F6                     u221_21:
  4677  05F6  2DF8               	goto	i1l1842
  4678  05F7                     u221_20:
  4679  05F7                     i1l1840:
  4680  05F7  01E4               	clrf	___fladd@signs
  4681  05F8                     i1l1842:
  4682  05F8  1C66               	btfss	___fladd@bexp,0
  4683  05F9  2DFB               	goto	u222_21
  4684  05FA  2DFC               	goto	u222_20
  4685  05FB                     u222_21:
  4686  05FB  2DFE               	goto	i1l1846
  4687  05FC                     u222_20:
  4688  05FC                     i1l1844:
  4689  05FC  17D6               	bsf	___fladd@b+2,7
  4690  05FD  2E02               	goto	i1l617
  4691  05FE                     i1l1846:
  4692  05FE  307F               	movlw	127
  4693  05FF  00DC               	movwf	??___fladd
  4694  0600  085C               	movf	??___fladd,w
  4695  0601  05D6               	andwf	___fladd@b+2,f
  4696  0602                     i1l617:
  4697  0602  0866               	movf	___fladd@bexp,w
  4698  0603  00DC               	movwf	??___fladd
  4699  0604  1003               	clrc
  4700  0605  0C5C               	rrf	??___fladd,w
  4701  0606  00DD               	movwf	??___fladd+1
  4702  0607  085D               	movf	??___fladd+1,w
  4703  0608  00D7               	movwf	___fladd@b+3
  4704  0609                     i1l1848:
  4705  0609  1FE4               	btfss	___fladd@signs,7
  4706  060A  2E0C               	goto	u223_21
  4707  060B  2E0D               	goto	u223_20
  4708  060C                     u223_21:
  4709  060C  2E0E               	goto	i1l618
  4710  060D                     u223_20:
  4711  060D                     i1l1850:
  4712  060D  17D7               	bsf	___fladd@b+3,7
  4713  060E                     i1l618:
  4714  060E                     i1l588:
  4715  060E  0008               	return
  4716  060F                     __end_of___fladd:
  4717  007E                     btemp	set	126	;btemp
  4718  007E                     wtemp0	set	126
  4719                           
  4720                           	psect	idloc
  4721                           
  4722                           ;Config register IDLOC0 @ 0x2000
  4723                           ;	unspecified, using default values
  4724  2000                     	org	8192
  4725  2000  3FFF               	dw	16383
  4726                           
  4727                           ;Config register IDLOC1 @ 0x2001
  4728                           ;	unspecified, using default values
  4729  2001                     	org	8193
  4730  2001  3FFF               	dw	16383
  4731                           
  4732                           ;Config register IDLOC2 @ 0x2002
  4733                           ;	unspecified, using default values
  4734  2002                     	org	8194
  4735  2002  3FFF               	dw	16383
  4736                           
  4737                           ;Config register IDLOC3 @ 0x2003
  4738                           ;	unspecified, using default values
  4739  2003                     	org	8195
  4740  2003  3FFF               	dw	16383
  4741                           
  4742                           	psect	config
  4743                           
  4744                           ;Config register CONFIG1 @ 0x2007
  4745                           ;	unspecified, using default values
  4746                           ;	Oscillator Selection bits
  4747                           ;	FOSC = 0x7, unprogrammed default
  4748                           ;	Watchdog Timer Enable bit
  4749                           ;	WDTE = 0x1, unprogrammed default
  4750                           ;	Power-up Timer Enable bit
  4751                           ;	PWRTE = 0x1, unprogrammed default
  4752                           ;	RE3/MCLR pin function select bit
  4753                           ;	MCLRE = 0x1, unprogrammed default
  4754                           ;	Code Protection bit
  4755                           ;	CP = 0x1, unprogrammed default
  4756                           ;	Data Code Protection bit
  4757                           ;	CPD = 0x1, unprogrammed default
  4758                           ;	Brown Out Reset Selection bits
  4759                           ;	BOREN = 0x3, unprogrammed default
  4760                           ;	Internal External Switchover bit
  4761                           ;	IESO = 0x1, unprogrammed default
  4762                           ;	Fail-Safe Clock Monitor Enabled bit
  4763                           ;	FCMEN = 0x1, unprogrammed default
  4764                           ;	Low Voltage Programming Enable bit
  4765                           ;	LVP = 0x1, unprogrammed default
  4766                           ;	In-Circuit Debugger Mode bit
  4767                           ;	DEBUG = 0x1, unprogrammed default
  4768  2007                     	org	8199
  4769  2007  3FFF               	dw	16383
  4770                           
  4771                           ;Config register CONFIG2 @ 0x2008
  4772                           ;	unspecified, using default values
  4773                           ;	Brown-out Reset Selection bit
  4774                           ;	BOR4V = 0x1, unprogrammed default
  4775                           ;	Flash Program Memory Self Write Enable bits
  4776                           ;	WRT = 0x3, unprogrammed default
  4777  2008                     	org	8200
  4778  2008  3FFF               	dw	16383

Data Sizes:
    Strings     0
    Constant    0
    Data        1
    BSS         7
    Persistent  0
    Stack       0

Auto Spaces:
    Space          Size  Autos    Used
    COMMON           14     14      14
    BANK0            80     79      79
    BANK1            80     17      25
    BANK3            96      0       0
    BANK2            96      0       0

Pointer List with Targets:

    None.

Critical Paths under _main in COMMON

    None.

Critical Paths under _isr in COMMON

    _map->___xxtofl
    ___fltol->___xxtofl
    ___flmul->___xxtofl
    ___fldiv->___xxtofl
    ___fladd->___xxtofl

Critical Paths under _main in BANK0

    None.

Critical Paths under _isr in BANK0

    _isr->_map
    _map->___fltol
    ___fltol->___fladd
    ___flmul->___fldiv
    ___fladd->___flmul

Critical Paths under _main in BANK1

    None.

Critical Paths under _isr in BANK1

    _isr->_map
    _map->___fltol

Critical Paths under _main in BANK3

    None.

Critical Paths under _isr in BANK3

    None.

Critical Paths under _main in BANK2

    None.

Critical Paths under _isr in BANK2

    None.

Call Graph Tables:

 ---------------------------------------------------------------------------------
 (Depth) Function   	        Calls       Base Space   Used Autos Params    Refs
 ---------------------------------------------------------------------------------
 (0) _main                                                 1     1      0       0
                                             16 BANK1      1     1      0
 ---------------------------------------------------------------------------------
 Estimated maximum stack depth 0
 ---------------------------------------------------------------------------------
 (Depth) Function   	        Calls       Base Space   Used Autos Params    Refs
 ---------------------------------------------------------------------------------
 (1) _isr                                                  5     5      0    7363
                                             11 BANK1      5     5      0
                                _map
                            _spiRead
                           _spiWrite
 ---------------------------------------------------------------------------------
 (2) _spiWrite                                             1     1      0      22
                                              0 COMMON     1     1      0
 ---------------------------------------------------------------------------------
 (2) _spiRead                                              0     0      0       0
                     _spiReceiveWait
 ---------------------------------------------------------------------------------
 (3) _spiReceiveWait                                       0     0      0       0
 ---------------------------------------------------------------------------------
 (2) _map                                                  7     1      6    7341
                                             78 BANK0      1     1      0
                                              5 BANK1      6     0      6
                            ___fladd
                            ___fldiv
                            ___flmul
                            ___fltol
                           ___xxtofl
 ---------------------------------------------------------------------------------
 (3) ___xxtofl                                            14    10      4     626
                                              0 COMMON    14    10      4
 ---------------------------------------------------------------------------------
 (3) ___fltol                                             11     7      4     305
                                             72 BANK0      6     2      4
                                              0 BANK1      5     5      0
                            ___fladd (ARG)
                            ___fldiv (ARG)
                            ___flmul (ARG)
                           ___xxtofl (ARG)
 ---------------------------------------------------------------------------------
 (3) ___flmul                                             26    18      8    2417
                                             26 BANK0     26    18      8
                          __Umul8_16
                            ___fldiv (ARG)
                           ___xxtofl (ARG)
 ---------------------------------------------------------------------------------
 (4) __Umul8_16                                            9     7      2     799
                                              0 COMMON     9     7      2
 ---------------------------------------------------------------------------------
 (3) ___fldiv                                             26    18      8    1273
                                              0 BANK0     26    18      8
                           ___xxtofl (ARG)
 ---------------------------------------------------------------------------------
 (3) ___fladd                                             20    12      8    2262
                                             52 BANK0     20    12      8
                            ___fldiv (ARG)
                            ___flmul (ARG)
                           ___xxtofl (ARG)
 ---------------------------------------------------------------------------------
 Estimated maximum stack depth 4
 ---------------------------------------------------------------------------------

 Call Graph Graphs:

 _main (ROOT)

 _isr (ROOT)
   _map
     ___fladd
       ___fldiv (ARG)
         ___xxtofl (ARG)
       ___flmul (ARG)
         __Umul8_16
         ___fldiv (ARG)
         ___xxtofl (ARG)
       ___xxtofl (ARG)
     ___fldiv
     ___flmul
     ___fltol
       ___fladd (ARG)
       ___fldiv (ARG)
       ___flmul (ARG)
       ___xxtofl (ARG)
     ___xxtofl
   _spiRead
     _spiReceiveWait
   _spiWrite

 Address spaces:
Name               Size   Autos  Total    Cost      Usage
BANK3               60      0       0       9        0.0%
BITBANK3            60      0       0       8        0.0%
SFR3                 0      0       0       4        0.0%
BITSFR3              0      0       0       4        0.0%
BANK2               60      0       0      11        0.0%
BITBANK2            60      0       0      10        0.0%
SFR2                 0      0       0       5        0.0%
BITSFR2              0      0       0       5        0.0%
BANK1               50     11      19       7       31.2%
BITBANK1            50      0       0       6        0.0%
SFR1                 0      0       0       2        0.0%
BITSFR1              0      0       0       2        0.0%
BANK0               50     4F      4F       5       98.8%
BITBANK0            50      0       0       4        0.0%
SFR0                 0      0       0       1        0.0%
BITSFR0              0      0       0       1        0.0%
COMMON               E      E       E       1      100.0%
BITCOMMON            E      0       0       0        0.0%
CODE                 0      0       0       0        0.0%
DATA                 0      0      76      12        0.0%
ABS                  0      0      76       3        0.0%
NULL                 0      0       0       0        0.0%
STACK                0      0       0       2        0.0%
EEDATA             100      0       0       0        0.0%


Microchip Technology PIC Macro Assembler V2.35 build 20211206165544 
Symbol Table                                                                                   Fri Sep 30 00:00:24 2022

           ___fldiv@aexp 0039             ___fldiv@bexp 0038             ___fldiv@sign 0031  
            _SSPSTATbits 0094      __Umul8_16@word_mpld 0076                      l148 0D12  
                    _RD3 0043                      _RD4 0044                      _RD5 0045  
                    _RD6 0046                      _RD7 0047                      _PR2 0092  
                    _map 0E94                      _isr 0DEF                      _pot 00B4  
           ___flmul@aexp 004C             ___flmul@bexp 004D             ___flmul@sign 0047  
           ___flmul@temp 0052             ___flmul@prod 004E             ___fltol@exp1 006D  
                   l2230 0D1E                     l2240 0D45                     l2232 0D22  
                   l2242 0D4C                     l2234 0D2D                     l2236 0D34  
                   l2228 0D18                     l2238 0D41                     ?_map 00A5  
                   ?_isr 0070                     _CCPR 00B1                     u3120 0D18  
                   u3121 0D17                     u3130 0D22                     u3131 0D21  
                   u3140 0D2D                     u3141 0D2C                     u3150 0D41  
                   u3151 0D40                     u3167 0D49                     _main 0D12  
                   map@x 006E                     btemp 007E                     start 0010  
        ___fldiv@new_exp 0032                    ??_map 007E                    ??_isr 00AB  
          ___fltol@sign1 006C          __end_of___fladd 060F                    ?_main 0070  
        __end_of___fldiv 07EC          __end_of___flmul 0387          __end_of___fltol 0DEF  
                  _ENVIO 00B7                    i1l143 0E89                    i1l137 0E3D  
                  i1l162 0F45                    i1l182 07F5                    i1l600 0580  
                  i1l185 07FB                    i1l196 07F4                    i1l188 0CEA  
                  i1l606 05A2                    i1l631 066B                    i1l617 0602  
                  i1l609 05E0                    i1l633 07EB                    i1l721 0FAD  
                  i1l618 060E                    i1l475 0DD9                    i1l715 0F68  
                  i1l468 0DEE                    i1l581 0468                    i1l653 07CF  
                  i1l717 0FFF                    i1l478 0DEE                    i1l575 03EA  
                  i1l655 07DF                    i1l647 075D                    i1l671 0386  
                  i1l728 0FC9                    i1l729 0FD5                    i1l690 0CFF  
                  i1l579 0491                    i1l683 037A                    i1l596 055C  
                  i1l588 060E                    i1l692 0D11                    i1l677 02F2  
                  _RCREG 001A                    _SPBRG 0099                    _TXREG 0019  
                  _boton 00B3                    _reloj 00B6                    map@x0 00A5  
                  map@x1 00A6                    map@y0 00A7                    map@y1 00A9  
                  pclath 000A          __end_of_spiRead 07F5                    status 0003  
                  wtemp0 007E          __initialization 0013             __end_of_main 0D53  
                 ??_main 00B0                   _ADRESH 001E                   _CCPR1L 0015  
                 i1l2000 0037                   i1l2010 004C                   i1l2002 0038  
                 i1l2020 0064                   i1l2012 0054                   i1l2004 003D  
                 i1l2110 0327                   i1l2102 02F7                   i1l2030 0080  
                 i1l2022 0069                   i1l2014 0059                   i1l2006 0042  
                 i1l2120 035E                   i1l2104 02FC                   i1l2112 032D  
                 i1l2040 00A3                   i1l2032 0085                   i1l2024 006E  
                 i1l2016 005F                   i1l2008 004A                   i1l2200 0E0F  
                 i1l2130 037E                   i1l2122 0360                   i1l2114 033A  
                 i1l2106 030A                   i1l2050 0131                   i1l2042 00B0  
                 i1l2034 008A                   i1l2026 0076                   i1l2018 0063  
                 i1l2210 0E30                   i1l2202 0E16                   i1l2124 036E  
                 i1l2116 0345                   i1l2108 030E                   i1l2060 0193  
                 i1l2052 014D                   i1l2044 00CD                   i1l2028 0078  
                 i1l2140 0F60                   i1l2220 0E4F                   i1l2212 0E36  
                 i1l2204 0E1C                   i1l2126 0372                   i1l2118 0354  
                 i1l2070 0223                   i1l2062 01B0                   i1l2054 0156  
                 i1l2046 00E9                   i1l2038 0093                   i1l2150 0F8B  
                 i1l2142 0F70                   i1l2134 0F47                   i1l2222 0E69  
                 i1l2206 0E23                   i1l2214 0E3D                   i1l2128 0373  
                 i1l2080 02B5                   i1l2072 0250                   i1l2064 01C9  
                 i1l2056 0166                   i1l2048 0115                   i1l2160 0FBF  
                 i1l2152 0F92                   i1l2136 0F4C                   i1l2224 0E77  
                 i1l2208 0E29                   i1l2216 0E40                   i1l1610 0CF5  
                 i1l2082 02BE                   i1l2090 02D2                   i1l2074 0276  
                 i1l2066 01E6                   i1l2058 0183                   i1l2170 0FF2  
                 i1l2162 0FC3                   i1l2154 0F96                   i1l2146 0F79  
                 i1l2138 0F50                   i1l2226 0E88                   i1l2218 0E44  
                 i1l1700 03E2                   i1l1612 0CF9                   i1l2092 02D6  
                 i1l2084 02C2                   i1l2076 029E                   i1l2068 0213  
                 i1l2172 0FF6                   i1l2164 0FCD                   i1l2156 0FA4  
                 i1l2148 0F7E                   i1l1620 07F5                   i1l2180 07F1  
                 u200_25 04D4                   i1l1710 0400                   i1l1702 03F0  
                 i1l1614 0D08                   i1l1606 0CEC                   i1l2094 02D7  
                 i1l2086 02C3                   i1l2078 02A7                   i1l1630 0D92  
                 i1l1622 0D53                   i1l2174 0FF7                   i1l2166 0FD7  
                 i1l2158 0FB4                   i1l2190 0DEF                   i1l1800 057B  
                 u201_20 04F6                   i1l1720 0414                   i1l1712 0404  
                 i1l1704 03F4                   i1l1616 0D0D                   i1l1608 0CEE  
                 i1l2096 02DB                   i1l2088 02CC                   i1l1632 0D93  
                 i1l1624 0D64                   i1l2168 0FED                   i1l2184 0CE6  
                 i1l2192 0DF5                   u201_21 04F5                   i1l1810 058E  
                 i1l1802 057F                   i1l1730 0428                   i1l1722 0418  
                 i1l1714 0408                   i1l1706 03F8                   i1l2098 02EF  
                 i1l1634 0D9B                   i1l2186 0E97                   i1l2178 07EC  
                 i1l2194 0DFB                   u201_23 04F2                   i1l1820 059F  
                 i1l1804 0584                   i1l1812 0590                   i1l1740 044C  
                 i1l1732 042C                   i1l1724 041C                   i1l1716 040C  
                 i1l1708 03FC                   i1l1660 038E                   i1l1900 068C  
                 i1l1652 0DC6                   i1l1644 0DA9                   i1l1636 0D9D  
                 i1l1628 0D6D                   i1l2196 0E00                   i1l1830 05BE  
                 i1l1806 0587                   i1l1814 0594                   i1l1750 047C  
                 i1l1742 046C                   i1l1734 0430                   i1l1726 0420  
                 i1l1718 0410                   i1l1670 03A3                   i1l1662 0394  
                 i1l1910 06B4                   i1l1902 0691                   i1l1654 0DDE  
                 i1l1638 0DA1                   i1l1646 0DBF                   i1l2198 0E0A  
                 i1l1840 05F7                   i1l1832 05DC                   i1l1824 05A7  
                 i1l1816 0595                   u210_20 058E                   i1l1808 0589  
                 i1l1752 0485                   i1l1744 0475                   i1l1728 0424  
                 i1l1736 0434                   i1l1680 03BB                   i1l1672 03AB  
                 i1l1664 0398                   i1l1920 06DD                   i1l1912 06BC  
                 i1l1656 0DE3                   u210_21 058D                   u202_21 050D  
                 i1l1850 060D                   i1l1842 05F8                   i1l1834 05E5  
                 i1l1826 05AC                   i1l1818 0599                   u202_22 050E  
                 i1l1770 04CB                   i1l1762 04A3                   i1l1746 0477  
                 i1l1754 0489                   i1l1738 0435                   i1l1690 03CD  
                 i1l1682 03C1                   i1l1674 03AC                   i1l1666 0399  
                 i1l1658 0387                   i1l1930 06FE                   i1l1922 06E1  
                 i1l1914 06C4                   i1l1906 069A                   u202_23 0513  
                 i1l1844 05FC                   i1l1836 05EA                   i1l1828 05BA  
                 u202_24 0514                   i1l1772 04CD                   i1l1764 04BA  
                 i1l1756 0495                   i1l1780 04E0                   i1l1748 047B  
                 i1l1692 03D2                   i1l1684 03C2                   i1l1668 039E  
                 i1l1676 03AE                   i1l1940 0720                   i1l1932 070C  
                 i1l1924 06E2                   i1l1916 06C6                   i1l1908 06AC  
                 i1l1860 0621                   i1l1852 060F                   u202_25 0519  
                 i1l1846 05FE                   i1l1838 05F2                   u202_26 051A  
                 i1l1782 04F6                   i1l1790 054E                   i1l1774 04D1  
                 i1l1766 04BE                   i1l1758 049A                   i1l1694 03D7  
                 i1l1686 03C8                   i1l1678 03B6                   i1l1942 0729  
                 i1l1950 073D                   i1l1918 06CB                   i1l1926 06EB  
                 i1l1934 0710                   i1l1862 0626                   i1l1870 0636  
                 i1l1854 0616                   i1l1848 0609                   u211_20 0594  
                 i1l1792 0564                   i1l1784 0534                   u203_20 0521  
                 i1l1776 04D2                   i1l1768 04C2                   i1l1696 03DF  
                 i1l1688 03CC                   i1l1952 0741                   i1l1944 072D  
                 i1l1936 0716                   i1l1928 06FD                   i1l1880 064E  
                 i1l1872 063E                   i1l1864 062B                   i1l1856 061C  
                 u211_21 0593                   u203_21 0522                   i1l1794 0569  
                 i1l1786 053A                   u203_22 0527                   i1l1778 04DB  
                 i1l1698 03E0                   i1l1970 0792                   i1l1962 0762  
                 i1l1954 0742                   i1l1946 072E                   i1l1938 071E  
                 i1l1882 0653                   i1l1890 0663                   i1l1874 0643  
                 i1l1866 0633                   i1l1858 0620                   u203_23 0528  
                 i1l1788 053F                   i1l1980 07C6                   i1l1964 0767  
                 i1l1972 0798                   i1l1956 0746                   i1l1948 0737  
                 i1l1892 0673                   i1l1884 0658                   i1l1876 0649  
                 i1l1868 0634                   i1l1798 0572                   i1l1982 07CE  
                 i1l1974 07A5                   i1l1966 0775                   i1l1958 075A  
                 i1l1894 067F                   i1l1886 0660                   i1l1878 064D  
                 u220_20 05EA                   u212_20 0599                   u204_20 053F  
                 i1l1984 07D5                   i1l1976 07B3                   i1l1968 0779  
                 i1l1896 0683                   i1l1888 0661                   u300_20 0FCD  
                 u220_21 05E9                   u212_21 0598                   u204_21 053E  
                 u300_21 0FCC                   i1l1986 07D9                   i1l1978 07C2  
                 i1l1994 0026                   i1l1988 07DB                   i1l1996 002D  
                 i1l1998 0033                   u221_20 05F7                   u213_20 059F  
                 u205_20 0564                   u301_20 0FE2                   u221_21 05F6  
                 u213_21 059E                   u205_21 0563                   u301_25 0FDD  
                 u222_20 05FC                   u214_20 05A6                   u206_20 0569  
                 u230_20 0673                   u302_20 0FF2                   u310_20 0E44  
                 u222_21 05FB                   u214_21 05A5                   u206_21 0568  
                 u230_21 0672                   u302_21 0FF1                   u310_21 0E43  
                 u223_20 060D                   u215_20 05AC                   u231_20 0691  
                 u303_20 0FF6                   u311_20 0E4F                   u223_21 060C  
                 u215_21 05AB                   u231_21 0690                   u303_21 0FF5  
                 u311_21 0E4E                   u207_25 0574                   u216_20 05BE  
                 u208_20 057F                   u232_20 06CB                   u224_20 0620  
                 u304_20 0DF5                   u216_21 05BD                   u208_21 057E  
                 u232_21 06CA                   u224_21 061F                   u304_21 0DF4  
                 u240_25 0722                   u217_20 05CD                   u209_20 0584  
                 u241_20 072D                   u225_20 0626                   u305_20 0E00  
                 u209_21 0583                   u241_21 072C                   u225_21 0625  
                 u305_21 0DFF                   u217_25 05C8                   u233_25 06CD  
                 u218_20 05DC                   u250_20 07A5                   u226_20 062B  
                 u170_20 0DA1                   u306_20 0E0F                   u218_21 05DB  
                 u250_21 07A4                   u226_21 062A                   u170_21 0DA0  
                 u306_21 0E0E                   u250_25 07A1                   u242_25 0730  
                 u234_25 06D6                   u219_20 05E5                   u251_20 07C2  
                 u243_20 0741                   u235_20 06E1                   u227_20 064D  
                 u171_20 0DA8                   u307_20 0E1C                   u219_21 05E4  
                 u251_21 07C1                   u243_21 0740                   u235_21 06E0  
                 u227_21 064C                   u171_21 0DA7                   u307_21 0E1B  
                 u251_25 07BE                   u180_20 03A3                   u252_20 07D9  
                 u244_20 0746                   u228_20 0653                   u164_20 0CF9  
                 u260_20 008A                   u308_20 0E29                   u180_21 03A2  
                 u252_21 07D8                   u244_21 0745                   u228_21 0652  
                 u164_21 0CF8                   u260_21 0089                   u308_21 0E28  
                 u236_25 06E4                   u172_25 0DAA                   u181_20 03C1  
                 u245_20 075A                   u237_20 06FD                   u229_20 0658  
                 u253_20 0037                   u173_20 0DBE                   u309_20 0E36  
                 u181_21 03C0                   u245_21 0759                   u237_21 06FC  
                 u229_21 0657                   u261_21 00DB                   u253_21 0036  
                 u173_21 0DBD                   u309_21 0E35                   u261_22 00E2  
                 u261_23 00E9                   u237_25 06F9                   u165_25 0D00  
                 u190_20 046C                   u182_20 03CC                   u246_20 0761  
                 u238_20 0716                   u166_20 0D0D                   u254_20 003D  
                 u174_20 0DC5                   u190_21 046B                   u182_21 03CB  
                 u246_21 0760                   u238_21 0715                   u166_21 0D0C  
                 u270_21 0205                   u262_21 00F7                   u254_21 003C  
                 u174_21 0DC4                   u270_22 020C                   u262_22 00FE  
                 u270_23 0213                   u262_23 0105                   u191_20 047B  
                 u183_20 03D2                   u247_20 0767                   u239_20 071E  
                 u255_20 0042                   u167_20 07FB                   u191_21 047A  
                 u183_21 03D1                   u247_21 0766                   u239_21 071D  
                 u271_21 0232                   u263_21 0123                   u255_21 0041  
                 u167_21 07FA                   u271_22 0239                   u263_22 012A  
                 u271_23 0240                   u263_23 0131                   u175_25 0DCA  
                 u184_20 03D7                   u248_20 0779                   u280_20 02D6  
                 u272_20 025C                   u256_20 0063                   u176_20 0DDE  
                 u168_20 0D64                   u184_21 03D6                   u248_21 0778  
                 u280_21 02D5                   u264_21 013F                   u256_21 0062  
                 u176_21 0DDD                   u168_21 0D63                   u264_22 0146  
                 u264_23 014D                   u192_25 047E                   u272_25 0257  
                 u193_20 0491                   u185_20 03F0                   u249_20 0788  
                 u281_20 02DB                   u257_20 0069                   u177_20 0DE3  
                 u169_20 0D89                   u193_21 0490                   u185_21 03EF  
                 u281_21 02DA                   u273_21 0268                   u257_21 0068  
                 u177_21 0DE2                   u273_22 026F                   u273_23 0276  
                 u249_25 0783                   u265_25 014F                   u169_25 0D84  
                 u194_20 0495                   u186_20 03F4                   u178_20 0398  
                 u282_20 02EF                   u274_20 0284                   u258_20 006E  
                 u290_20 0F4C                   u194_21 0494                   u186_21 03F3  
                 u178_21 0397                   u282_21 02EE                   u266_21 0175  
                 u258_21 006D                   u290_21 0F4B                   u266_22 017C  
                 u266_23 0183                   u274_25 027F                   u195_20 049A  
                 u187_20 044C                   u179_20 039E                   u283_20 02F6  
                 u259_20 0085                   u291_20 0F50                   u195_21 0499  
                 u187_21 044B                   u179_21 039D                   u283_21 02F5  
                 u275_21 0290                   u267_21 01A2                   u259_21 0084  
                 u291_21 0F4F                   u275_22 0297                   u267_22 01A9  
                 u275_23 029E                   u267_23 01B0                   u187_25 0448  
                 u188_20 0457                   u284_20 02FC                   u292_20 0F70  
                 u196_21 04AC                   u188_21 0455                   u284_21 02FB  
                 u292_21 0F6F                   u196_22 04B3                   u196_23 04BA  
                 u276_25 02A0                   u268_25 01B2                   u197_20 04BE  
                 u189_20 0458                   u285_20 030E                   u197_21 04BD  
                 u285_21 030D                   u269_21 01D8                   u269_22 01DF  
                 u269_23 01E6                   u277_25 02B7                   u293_25 0F83  
                 u198_20 04C2                   u286_20 031D                   u278_20 02C2  
                 u294_20 0F91                   u198_21 04C1                   u278_21 02C1  
                 u294_21 0F90                   u286_25 0318                   u199_20 04D1  
                 u287_20 033A                   u199_21 04D0                   u287_21 0339  
                 u287_25 0336                   u279_25 02C5                   u295_25 0FA5  
                 u288_20 0354                   u296_20 0FB3                   u288_21 0353  
                 u296_21 0FB2                   u288_25 0350                   u289_20 0372  
                 u289_21 0371                   u297_25 0FB8                   u298_20 0FC3  
                 u298_21 0FC2                   u299_20 0FC9                   u299_21 0FC8  
                 _SPBRGH 009A                   _TRISC3 043B                   _TRISC5 043D  
                 _SSPCON 0014                   _SSPBUF 0013         __end_of___xxtofl 1000  
              ??___fladd 005C                ??___fldiv 0028                ??___flmul 0042  
              ??___fltol 00A0                   saved_w 007E         __end_of_spiWrite 0CEB  
              ??_spiRead 0070             ___xxtofl@arg 007A             ___xxtofl@exp 0079  
           ___xxtofl@val 0070  __end_of__initialization 0022               ___fltol@f1 0068  
         __pcstackCOMMON 0070             __pidataBANK1 07FC               __pbssBANK1 00B1  
      __end_of__Umul8_16 0D12               __pmaintext 0D12               __pintentry 0004  
                _CCP1CON 0017                ?___xxtofl 0070                  _SSPSTAT 0094  
              ?_spiWrite 0070                  ___fladd 0387                  ___fldiv 060F  
                ___flmul 0026                  ___fltol 0D53                  __ptext1 0DEF  
                __ptext2 0CE5                  __ptext3 07EC                  __ptext4 07F5  
                __ptext5 0E94                  __ptext6 0F46                  __ptext7 0D53  
                __ptext8 0026                  __ptext9 0CEB                  _mensaje 00B8  
             ??___xxtofl 0074                  _spiRead 07EC                  _presion 00B5  
   end_of_initialization 0022                _RCSTAbits 0018               ??_spiWrite 0070  
              _PORTDbits 0008              ___fladd@grs 0067            ___xxtofl@sign 0078  
              _TRISCbits 0087              ___fldiv@grs 0034              ___fldiv@rem 002D  
            spiWrite@dat 0070              ___flmul@grs 0048              _CCP1CONbits 0017  
              _TXSTAbits 0098           _spiReceiveWait 07F5              _BAUDCTLbits 0187  
    start_initialization 0013              __end_of_map 0F46              __end_of_isr 0E94  
 __end_of_spiReceiveWait 07FC                __Umul8_16 0CEB              __pdataBANK1 00B8  
              ___fladd@a 0058                ___fladd@b 0054                ___fldiv@a 0020  
              ___fldiv@b 0024                ___flmul@a 003E                ___flmul@b 003A  
              ___latbits 0002            __pcstackBANK0 0020            __pcstackBANK1 00A0  
        ?_spiReceiveWait 0070                 ?___fladd 0054                 ?___fldiv 0020  
               ?___flmul 003A                 ?___fltol 0068               ?__Umul8_16 0070  
               ?_spiRead 0070        interrupt_function 0004                 _PIE1bits 008C  
               _PIR1bits 000C               _ADCON0bits 001F               _ADCON1bits 009F  
            ??__Umul8_16 0072                 ___xxtofl 0F46                 __ptext10 060F  
               __ptext11 0387                 _spiWrite 0CE5               _INTCONbits 000B  
               intlevel1 0000         ??_spiReceiveWait 0070               _OSCCONbits 008F  
 __Umul8_16@multiplicand 0070            ___fladd@signs 0064             ___fladd@aexp 0065  
           ___fladd@bexp 0066     __Umul8_16@multiplier 0078        __Umul8_16@product 0074  
